(lp0
(dp1
S'season'
p2
S'2005-06'
p3
sS'stats'
p4
(lp5
I3
aI1
aI2
aI1
aI0
aI0
aI0
aI1
aI0
aI0
aI0
aI0
aI0
aI0
asS'opp'
p6
S'DET'
p7
sS'seasonType'
p8
S'Playoffs'
p9
sS'location'
p10
S'away'
p11
sa(dp12
g2
S'2005-06'
p13
sg4
(lp14
I9
aI0
aI6
aI3
aI0
aI0
aI0
aI0
aI0
aI0
aI0
aI0
aI0
aI0
asg6
S'DET'
p15
sg8
g9
sg10
S'home'
p16
sa(dp17
g2
S'2005-06'
p18
sg4
(lp19
I3
aI1
aI2
aI1
aI0
aI0
aI0
aI0
aI0
aI0
aI0
aI0
aI0
aI0
asg6
S'DET'
p20
sg8
g9
sg10
g11
sa(dp21
g2
S'2005-06'
p22
sg4
(lp23
I0
aI5
aI5
aI0
aI0
aI0
aI0
aI0
aI0
aI0
aI0
aI0
aI0
aI0
asg6
S'DET'
p24
sg8
g9
sg10
g16
sa(dp25
g2
S'2005-06'
p26
sg4
(lp27
I1
aI0
aI1
aI0
aI0
aI0
aI0
aI0
aI0
aI0
aI0
aI0
aI0
aI0
asg6
S'DET'
p28
sg8
g9
sg10
g16
sa(dp29
g2
S'2005-06'
p30
sg4
(lp31
I3
aI2
aI3
aI0
aI0
aI0
aI0
aI0
aI0
aI0
aI0
aI0
aI0
aI0
asg6
S'DET'
p32
sg8
g9
sg10
g11
sa(dp33
g2
S'2005-06'
p34
sg4
(lp35
I1
aI0
aI1
aI0
aI0
aI0
aI0
aI0
aI0
aI0
aI0
aI0
aI0
aI0
asg6
S'DET'
p36
sg8
g9
sg10
g11
sa(dp37
g2
S'2005-06'
p38
sg4
(lp39
I1
aI1
aI0
aI1
aI0
aI0
aI0
aI0
aI0
aI0
aI0
aI0
aI0
aI0
asg6
S'WAS'
p40
sg8
g9
sg10
g11
sa(dp41
g2
S'2005-06'
p42
sg4
(lp43
I9
aI1
aI8
aI0
aI0
aI0
aI0
aI0
aI0
aI0
aI0
aI0
aI0
aI0
asg6
S'WAS'
p44
sg8
g9
sg10
g16
sa(dp45
g2
S'2005-06'
p46
sg4
(lp47
I2
aI2
aI3
aI0
aI0
aI0
aI0
aI0
aI0
aI0
aI0
aI0
aI0
aI0
asg6
S'WAS'
p48
sg8
g9
sg10
g11
sa(dp49
g2
S'2005-06'
p50
sg4
(lp51
I5
aI1
aI1
aI2
aI0
aI0
aI0
aI0
aI0
aI0
aI0
aI0
aI0
aI0
asg6
S'WAS'
p52
sg8
g9
sg10
g11
sa(dp53
g2
S'2005-06'
p54
sg4
(lp55
I6
aI2
aI5
aI1
aI0
aI0
aI0
aI1
aI0
aI0
aI0
aI0
aI0
aI0
asg6
S'WAS'
p56
sg8
g9
sg10
g16
sa(dp57
g2
S'2005-06'
p58
sg4
(lp59
I5
aI2
aI2
aI2
aI0
aI0
aI0
aI0
aI0
aI0
aI0
aI0
aI0
aI0
asg6
S'WAS'
p60
sg8
g9
sg10
g16
sa(dp61
g2
S'2006-07'
p62
sg4
(lp63
I1
aI2
aI1
aI2
aI0
aI0
aI0
aI0
aI0
aI0
aI0
aI0
aI0
aI0
asg6
S'SAS'
p64
sg8
g9
sg10
g16
sa(dp65
g2
S'2006-07'
p66
sg4
(lp67
I4
aI0
aI2
aI0
aI0
aI0
aI0
aI0
aI0
aI0
aI0
aI0
aI1
aI1
asg6
S'SAS'
p68
sg8
g9
sg10
g16
sa(dp69
g2
S'2006-07'
p70
sg4
(lp71
I5
aI2
aI2
aI2
aI0
aI0
aI0
aI0
aI0
aI0
aI0
aI0
aI0
aI0
asg6
S'SAS'
p72
sg8
g9
sg10
g11
sa(dp73
g2
S'2006-07'
p74
sg4
(lp75
I2
aI0
aI2
aI0
aI0
aI0
aI0
aI0
aI0
aI0
aI0
aI0
aI0
aI0
asg6
S'SAS'
p76
sg8
g9
sg10
g11
sa(dp77
g2
S'2006-07'
p78
sg4
(lp79
I5
aI5
aI8
aI0
aI0
aI0
aI1
aI0
aI0
aI0
aI0
aI0
aI0
aI0
asg6
S'DET'
p80
sg8
g9
sg10
g16
sa(dp81
g2
S'2006-07'
p82
sg4
(lp83
I6
aI2
aI4
aI2
aI0
aI0
aI0
aI0
aI0
aI0
aI0
aI0
aI0
aI0
asg6
S'DET'
p84
sg8
g9
sg10
g11
sa(dp85
g2
S'2006-07'
p86
sg4
(lp87
I4
aI1
aI4
aI0
aI0
aI0
aI0
aI0
aI0
aI0
aI0
aI0
aI0
aI0
asg6
S'DET'
p88
sg8
g9
sg10
g16
sa(dp89
g2
S'2006-07'
p90
sg4
(lp91
I4
aI1
aI2
aI2
aI0
aI0
aI0
aI0
aI0
aI0
aI0
aI0
aI0
aI0
asg6
S'DET'
p92
sg8
g9
sg10
g16
sa(dp93
g2
S'2006-07'
p94
sg4
(lp95
I2
aI2
aI3
aI0
aI0
aI0
aI0
aI0
aI0
aI0
aI0
aI0
aI0
aI0
asg6
S'DET'
p96
sg8
g9
sg10
g11
sa(dp97
g2
S'2006-07'
p98
sg4
(lp99
I0
aI0
aI0
aI0
aI0
aI0
aI0
aI0
aI0
aI0
aI0
aI0
aI0
aI0
asg6
S'DET'
p100
sg8
g9
sg10
g11
sa(dp101
g2
S'2006-07'
p102
sg4
(lp103
I4
aI1
aI2
aI2
aI0
aI0
aI0
aI0
aI0
aI0
aI0
aI0
aI0
aI0
asg6
S'NJN'
p104
sg8
g9
sg10
g11
sa(dp105
g2
S'2006-07'
p106
sg4
(lp107
I4
aI1
aI5
aI0
aI0
aI0
aI1
aI0
aI0
aI0
aI0
aI0
aI0
aI0
asg6
S'NJN'
p108
sg8
g9
sg10
g16
sa(dp109
g2
S'2006-07'
p110
sg4
(lp111
I4
aI4
aI6
aI1
aI0
aI0
aI0
aI0
aI0
aI0
aI0
aI0
aI0
aI0
asg6
S'NJN'
p112
sg8
g9
sg10
g11
sa(dp113
g2
S'2006-07'
p114
sg4
(lp115
I3
aI0
aI3
aI0
aI0
aI0
aI1
aI0
aI0
aI0
aI0
aI0
aI0
aI0
asg6
S'NJN'
p116
sg8
g9
sg10
g11
sa(dp117
g2
S'2006-07'
p118
sg4
(lp119
I4
aI3
aI4
aI1
aI0
aI0
aI1
aI0
aI0
aI0
aI0
aI0
aI0
aI0
asg6
S'NJN'
p120
sg8
g9
sg10
g16
sa(dp121
g2
S'2006-07'
p122
sg4
(lp123
I1
aI2
aI3
aI0
aI0
aI0
aI0
aI0
aI0
aI0
aI0
aI0
aI0
aI0
asg6
S'NJN'
p124
sg8
g9
sg10
g16
sa(dp125
g2
S'2006-07'
p126
sg4
(lp127
I7
aI2
aI7
aI1
aI0
aI0
aI0
aI0
aI0
aI0
aI0
aI0
aI0
aI0
asg6
S'WAS'
p128
sg8
g9
sg10
g11
sa(dp129
g2
S'2006-07'
p130
sg4
(lp131
I3
aI1
aI2
aI1
aI0
aI0
aI0
aI0
aI0
aI0
aI0
aI0
aI0
aI0
asg6
S'WAS'
p132
sg8
g9
sg10
g11
sa(dp133
g2
S'2006-07'
p134
sg4
(lp135
I6
aI1
aI5
aI1
aI0
aI0
aI0
aI0
aI0
aI0
aI0
aI0
aI0
aI0
asg6
S'WAS'
p136
sg8
g9
sg10
g16
sa(dp137
g2
S'2006-07'
p138
sg4
(lp139
I5
aI2
aI4
aI0
aI0
aI0
aI0
aI0
aI0
aI0
aI0
aI0
aI0
aI0
asg6
S'WAS'
p140
sg8
g9
sg10
g16
sa(dp141
g2
S'2007-08'
p142
sg4
(lp143
I6
aI3
aI6
aI1
aI0
aI0
aI2
aI1
aI0
aI0
aI0
aI0
aI0
aI0
asg6
S'BOS'
p144
sg8
g9
sg10
g11
sa(dp145
g2
S'2007-08'
p146
sg4
(lp147
I7
aI1
aI6
aI1
aI0
aI0
aI0
aI0
aI0
aI0
aI0
aI0
aI0
aI0
asg6
S'BOS'
p148
sg8
g9
sg10
g16
sa(dp149
g2
S'2007-08'
p150
sg4
(lp151
I5
aI2
aI6
aI0
aI0
aI0
aI0
aI0
aI0
aI0
aI0
aI0
aI0
aI0
asg6
S'BOS'
p152
sg8
g9
sg10
g11
sa(dp153
g2
S'2007-08'
p154
sg4
(lp155
I3
aI2
aI2
aI1
aI0
aI0
aI0
aI0
aI0
aI0
aI0
aI0
aI0
aI0
asg6
S'BOS'
p156
sg8
g9
sg10
g16
sa(dp157
g2
S'2007-08'
p158
sg4
(lp159
I3
aI2
aI3
aI2
aI0
aI0
aI0
aI0
aI1
aI0
aI1
aI0
aI0
aI0
asg6
S'BOS'
p160
sg8
g9
sg10
g16
sa(dp161
g2
S'2007-08'
p162
sg4
(lp163
I4
aI2
aI5
aI1
aI0
aI0
aI0
aI1
aI0
aI0
aI0
aI0
aI0
aI0
asg6
S'BOS'
p164
sg8
g9
sg10
g11
sa(dp165
g2
S'2007-08'
p166
sg4
(lp167
I2
aI2
aI4
aI0
aI0
aI0
aI0
aI0
aI1
aI0
aI1
aI0
aI0
aI0
asg6
S'BOS'
p168
sg8
g9
sg10
g11
sa(dp169
g2
S'2007-08'
p170
sg4
(lp171
I6
aI0
aI4
aI0
aI0
aI0
aI0
aI0
aI0
aI0
aI0
aI0
aI0
aI0
asg6
S'WAS'
p172
sg8
g9
sg10
g11
sa(dp173
g2
S'2007-08'
p174
sg4
(lp175
I7
aI2
aI8
aI1
aI0
aI0
aI0
aI0
aI0
aI0
aI0
aI0
aI0
aI0
asg6
S'WAS'
p176
sg8
g9
sg10
g16
sa(dp177
g2
S'2007-08'
p178
sg4
(lp179
I3
aI3
aI4
aI1
aI1
aI0
aI0
aI0
aI0
aI1
aI1
aI0
aI0
aI0
asg6
S'WAS'
p180
sg8
g9
sg10
g11
sa(dp181
g2
S'2007-08'
p182
sg4
(lp183
I2
aI1
aI0
aI1
aI0
aI0
aI0
aI0
aI0
aI0
aI0
aI0
aI0
aI0
asg6
S'WAS'
p184
sg8
g9
sg10
g11
sa(dp185
g2
S'2007-08'
p186
sg4
(lp187
I2
aI6
aI6
aI1
aI0
aI0
aI0
aI0
aI1
aI0
aI1
aI0
aI0
aI0
asg6
S'WAS'
p188
sg8
g9
sg10
g16
sa(dp189
g2
S'2007-08'
p190
sg4
(lp191
I5
aI2
aI3
aI4
aI0
aI0
aI0
aI0
aI0
aI0
aI0
aI0
aI0
aI0
asg6
S'WAS'
p192
sg8
g9
sg10
g16
sa(dp193
g2
S'2008-09'
p194
sg4
(lp195
I3
aI3
aI4
aI1
aI0
aI0
aI0
aI0
aI0
aI0
aI0
aI0
aI0
aI0
asg6
S'ORL'
p196
sg8
g9
sg10
g11
sa(dp197
g2
S'2008-09'
p198
sg4
(lp199
I8
aI2
aI5
aI2
aI0
aI0
aI0
aI0
aI0
aI0
aI0
aI0
aI2
aI0
asg6
S'ORL'
p200
sg8
g9
sg10
g16
sa(dp201
g2
S'2008-09'
p202
sg4
(lp203
I7
aI3
aI7
aI1
aI0
aI0
aI0
aI0
aI0
aI0
aI0
aI0
aI0
aI0
asg6
S'ORL'
p204
sg8
g9
sg10
g11
sa(dp205
g2
S'2008-09'
p206
sg4
(lp207
I10
aI2
aI7
aI4
aI1
aI0
aI0
aI0
aI0
aI0
aI0
aI0
aI0
aI0
asg6
S'ORL'
p208
sg8
g9
sg10
g11
sa(dp209
g2
S'2008-09'
p210
sg4
(lp211
I5
aI2
aI5
aI0
aI0
aI0
aI0
aI0
aI0
aI0
aI0
aI0
aI0
aI0
asg6
S'ORL'
p212
sg8
g9
sg10
g16
sa(dp213
g2
S'2008-09'
p214
sg4
(lp215
I4
aI2
aI2
aI2
aI0
aI0
aI0
aI0
aI0
aI0
aI0
aI0
aI0
aI0
asg6
S'ORL'
p216
sg8
g9
sg10
g16
sa(dp217
g2
S'2008-09'
p218
sg4
(lp219
I2
aI3
aI4
aI0
aI0
aI0
aI0
aI0
aI0
aI0
aI0
aI0
aI0
aI0
asg6
S'ATL'
p220
sg8
g9
sg10
g11
sa(dp221
g2
S'2008-09'
p222
sg4
(lp223
I4
aI3
aI7
aI0
aI0
aI0
aI1
aI1
aI0
aI0
aI0
aI0
aI0
aI0
asg6
S'ATL'
p224
sg8
g9
sg10
g11
sa(dp225
g2
S'2008-09'
p226
sg4
(lp227
I2
aI4
aI4
aI2
aI0
aI0
aI0
aI0
aI0
aI0
aI0
aI0
aI0
aI0
asg6
S'ATL'
p228
sg8
g9
sg10
g16
sa(dp229
g2
S'2008-09'
p230
sg4
(lp231
I4
aI1
aI4
aI0
aI0
aI0
aI0
aI0
aI0
aI0
aI0
aI0
aI0
aI0
asg6
S'ATL'
p232
sg8
g9
sg10
g16
sa(dp233
g2
S'2008-09'
p234
sg4
(lp235
I8
aI0
aI7
aI1
aI1
aI0
aI0
aI0
aI0
aI0
aI0
aI0
aI0
aI0
asg6
S'DET'
p236
sg8
g9
sg10
g11
sa(dp237
g2
S'2008-09'
p238
sg4
(lp239
I5
aI2
aI2
aI2
aI0
aI0
aI0
aI0
aI0
aI0
aI0
aI0
aI0
aI0
asg6
S'DET'
p240
sg8
g9
sg10
g11
sa(dp241
g2
S'2008-09'
p242
sg4
(lp243
I5
aI3
aI7
aI1
aI0
aI0
aI1
aI0
aI0
aI0
aI0
aI0
aI0
aI0
asg6
S'DET'
p244
sg8
g9
sg10
g16
sa(dp245
g2
S'2008-09'
p246
sg4
(lp247
I5
aI2
aI6
aI1
aI0
aI0
aI0
aI0
aI0
aI0
aI0
aI0
aI0
aI0
asg6
S'DET'
p248
sg8
g9
sg10
g16
sa(dp249
g2
S'2009-10'
p250
sg4
(lp251
I5
aI2
aI4
aI1
aI0
aI0
aI0
aI0
aI0
aI0
aI0
aI0
aI0
aI0
asg6
S'BOS'
p252
sg8
g9
sg10
g11
sa(dp253
g2
S'2009-10'
p254
sg4
(lp255
I4
aI2
aI5
aI1
aI0
aI0
aI0
aI0
aI0
aI0
aI0
aI0
aI0
aI0
asg6
S'BOS'
p256
sg8
g9
sg10
g16
sa(dp257
g2
S'2009-10'
p258
sg4
(lp259
I4
aI2
aI3
aI1
aI0
aI0
aI1
aI0
aI0
aI0
aI0
aI0
aI0
aI0
asg6
S'BOS'
p260
sg8
g9
sg10
g11
sa(dp261
g2
S'2009-10'
p262
sg4
(lp263
I4
aI0
aI2
aI1
aI0
aI0
aI0
aI0
aI1
aI0
aI1
aI0
aI0
aI0
asg6
S'BOS'
p264
sg8
g9
sg10
g11
sa(dp265
g2
S'2009-10'
p266
sg4
(lp267
I3
aI5
aI7
aI0
aI0
aI0
aI0
aI0
aI0
aI0
aI0
aI0
aI0
aI0
asg6
S'BOS'
p268
sg8
g9
sg10
g16
sa(dp269
g2
S'2009-10'
p270
sg4
(lp271
I5
aI1
aI3
aI2
aI0
aI0
aI0
aI0
aI0
aI0
aI0
aI0
aI0
aI0
asg6
S'BOS'
p272
sg8
g9
sg10
g16
sa(dp273
g2
S'2009-10'
p274
sg4
(lp275
I4
aI4
aI4
aI2
aI0
aI0
aI0
aI0
aI0
aI0
aI0
aI0
aI0
aI0
asg6
S'CHI'
p276
sg8
g9
sg10
g16
sa(dp277
g2
S'2009-10'
p278
sg4
(lp279
I5
aI0
aI4
aI0
aI0
aI0
aI0
aI1
aI0
aI0
aI0
aI0
aI0
aI0
asg6
S'CHI'
p280
sg8
g9
sg10
g11
sa(dp281
g2
S'2009-10'
p282
sg4
(lp283
I5
aI2
aI1
aI4
aI1
aI0
aI0
aI0
aI0
aI0
aI0
aI0
aI0
aI0
asg6
S'CHI'
p284
sg8
g9
sg10
g11
sa(dp285
g2
S'2009-10'
p286
sg4
(lp287
I3
aI0
aI3
aI0
aI0
aI0
aI0
aI0
aI0
aI0
aI0
aI0
aI0
aI0
asg6
S'CHI'
p288
sg8
g9
sg10
g16
sa(dp289
g2
S'2009-10'
p290
sg4
(lp291
I4
aI1
aI2
aI0
aI0
aI0
aI0
aI0
aI0
aI0
aI0
aI0
aI0
aI0
asg6
S'CHI'
p292
sg8
g9
sg10
g16
sa(dp293
g2
S'2010-11'
p294
sg4
(lp295
I0
aI2
aI1
aI1
aI0
aI0
aI0
aI0
aI0
aI0
aI0
aI0
aI0
aI0
asg6
S'DAL'
p296
sg8
g9
sg10
g16
sa(dp297
g2
S'2010-11'
p298
sg4
(lp299
I1
aI0
aI0
aI1
aI0
aI0
aI0
aI0
aI0
aI0
aI0
aI0
aI0
aI0
asg6
S'DAL'
p300
sg8
g9
sg10
g11
sa(dp301
g2
S'2010-11'
p302
sg4
(lp303
I1
aI1
aI1
aI1
aI0
aI0
aI0
aI0
aI0
aI0
aI0
aI0
aI0
aI0
asg6
S'DAL'
p304
sg8
g9
sg10
g11
sa(dp305
g2
S'2010-11'
p306
sg4
(lp307
I2
aI0
aI2
aI0
aI0
aI0
aI0
aI0
aI0
aI0
aI0
aI0
aI0
aI0
asg6
S'DAL'
p308
sg8
g9
sg10
g11
sa(dp309
g2
S'2010-11'
p310
sg4
(lp311
I1
aI1
aI1
aI0
aI0
aI0
aI0
aI1
aI0
aI0
aI0
aI0
aI0
aI0
asg6
S'DAL'
p312
sg8
g9
sg10
g16
sa(dp313
g2
S'2010-11'
p314
sg4
(lp315
I2
aI0
aI0
aI0
aI0
aI0
aI0
aI0
aI0
aI0
aI0
aI0
aI0
aI0
asg6
S'DAL'
p316
sg8
g9
sg10
g16
sa(dp317
g2
S'2010-11'
p318
sg4
(lp319
I4
aI0
aI2
aI2
aI0
aI0
aI1
aI0
aI1
aI0
aI1
aI0
aI0
aI0
asg6
S'CHI'
p320
sg8
g9
sg10
g11
sa(dp321
g2
S'2010-11'
p322
sg4
(lp323
I7
aI0
aI6
aI0
aI0
aI0
aI0
aI0
aI0
aI0
aI0
aI0
aI0
aI0
asg6
S'CHI'
p324
sg8
g9
sg10
g16
sa(dp325
g2
S'2010-11'
p326
sg4
(lp327
I5
aI0
aI3
aI0
aI1
aI0
aI0
aI0
aI0
aI0
aI0
aI0
aI0
aI0
asg6
S'CHI'
p328
sg8
g9
sg10
g16
sa(dp329
g2
S'2010-11'
p330
sg4
(lp331
I2
aI2
aI1
aI2
aI0
aI0
aI0
aI0
aI0
aI0
aI0
aI0
aI0
aI0
asg6
S'CHI'
p332
sg8
g9
sg10
g11
sa(dp333
g2
S'2010-11'
p334
sg4
(lp335
I2
aI0
aI2
aI0
aI0
aI0
aI0
aI0
aI0
aI0
aI0
aI0
aI0
aI0
asg6
S'CHI'
p336
sg8
g9
sg10
g11
sa(dp337
g2
S'2010-11'
p338
sg4
(lp339
I2
aI3
aI4
aI0
aI0
aI0
aI0
aI0
aI0
aI0
aI0
aI0
aI0
aI0
asg6
S'BOS'
p340
sg8
g9
sg10
g16
sa(dp341
g2
S'2010-11'
p342
sg4
(lp343
I4
aI0
aI4
aI0
aI0
aI0
aI0
aI0
aI1
aI0
aI0
aI0
aI0
aI0
asg6
S'BOS'
p344
sg8
g9
sg10
g11
sa(dp345
g2
S'2010-11'
p346
sg4
(lp347
I2
aI2
aI1
aI2
aI0
aI0
aI0
aI0
aI0
aI0
aI0
aI0
aI0
aI0
asg6
S'BOS'
p348
sg8
g9
sg10
g11
sa(dp349
g2
S'2010-11'
p350
sg4
(lp351
I3
aI2
aI2
aI0
aI0
aI0
aI0
aI1
aI0
aI0
aI0
aI0
aI0
aI0
asg6
S'BOS'
p352
sg8
g9
sg10
g16
sa(dp353
g2
S'2010-11'
p354
sg4
(lp355
I2
aI3
aI3
aI1
aI0
aI0
aI0
aI0
aI0
aI0
aI0
aI0
aI0
aI0
asg6
S'BOS'
p356
sg8
g9
sg10
g16
sa(dp357
g2
S'2010-11'
p358
sg4
(lp359
I2
aI0
aI1
aI1
aI0
aI0
aI1
aI0
aI0
aI0
aI0
aI0
aI0
aI0
asg6
S'PHI'
p360
sg8
g9
sg10
g16
sa(dp361
g2
S'2010-11'
p362
sg4
(lp363
I7
aI0
aI2
aI2
aI0
aI0
aI0
aI0
aI0
aI0
aI0
aI0
aI0
aI0
asg6
S'PHI'
p364
sg8
g9
sg10
g11
sa(dp365
g2
S'2010-11'
p366
sg4
(lp367
I3
aI2
aI3
aI1
aI0
aI0
aI1
aI0
aI0
aI0
aI0
aI0
aI0
aI0
asg6
S'PHI'
p368
sg8
g9
sg10
g11
sa(dp369
g2
S'2010-11'
p370
sg4
(lp371
I5
aI1
aI3
aI1
aI0
aI0
aI0
aI0
aI0
aI0
aI0
aI0
aI0
aI0
asg6
S'PHI'
p372
sg8
g9
sg10
g16
sa(dp373
g2
S'2010-11'
p374
sg4
(lp375
I7
aI0
aI5
aI1
aI0
aI0
aI1
aI0
aI0
aI0
aI0
aI0
aI0
aI0
asg6
S'PHI'
p376
sg8
g9
sg10
g16
sa(dp377
g2
S'2011-12'
p378
sg4
(lp379
I4
aI1
aI2
aI0
aI0
aI0
aI0
aI0
aI1
aI0
aI1
aI0
aI0
aI0
asg6
S'OKC'
p380
sg8
g9
sg10
g16
sa(dp381
g2
S'2011-12'
p382
sg4
(lp383
I3
aI1
aI2
aI2
aI0
aI0
aI0
aI0
aI0
aI0
aI0
aI0
aI0
aI0
asg6
S'OKC'
p384
sg8
g9
sg10
g16
sa(dp385
g2
S'2011-12'
p386
sg4
(lp387
I3
aI2
aI3
aI0
aI0
aI0
aI0
aI0
aI0
aI0
aI0
aI0
aI0
aI0
asg6
S'OKC'
p388
sg8
g9
sg10
g16
sa(dp389
g2
S'2011-12'
p390
sg4
(lp391
I6
aI0
aI6
aI0
aI0
aI0
aI0
aI0
aI0
aI0
aI0
aI0
aI0
aI0
asg6
S'OKC'
p392
sg8
g9
sg10
g11
sa(dp393
g2
S'2011-12'
p394
sg4
(lp395
I4
aI2
aI3
aI0
aI0
aI0
aI0
aI0
aI0
aI0
aI0
aI0
aI0
aI0
asg6
S'OKC'
p396
sg8
g9
sg10
g11
sa(dp397
g2
S'2011-12'
p398
sg4
(lp399
I7
aI2
aI5
aI3
aI0
aI0
aI0
aI0
aI0
aI0
aI0
aI0
aI0
aI0
asg6
S'BOS'
p400
sg8
g9
sg10
g16
sa(dp401
g2
S'2011-12'
p402
sg4
(lp403
I2
aI3
aI3
aI1
aI0
aI0
aI0
aI0
aI0
aI0
aI0
aI0
aI0
aI0
asg6
S'BOS'
p404
sg8
g9
sg10
g11
sa(dp405
g2
S'2011-12'
p406
sg4
(lp407
I2
aI2
aI4
aI0
aI0
aI0
aI0
aI0
aI0
aI0
aI0
aI0
aI0
aI0
asg6
S'BOS'
p408
sg8
g9
sg10
g16
sa(dp409
g2
S'2011-12'
p410
sg4
(lp411
I1
aI4
aI3
aI0
aI0
aI0
aI0
aI0
aI0
aI0
aI0
aI0
aI0
aI0
asg6
S'BOS'
p412
sg8
g9
sg10
g11
sa(dp413
g2
S'2011-12'
p414
sg4
(lp415
I0
aI4
aI1
aI0
aI0
aI0
aI0
aI0
aI0
aI0
aI0
aI0
aI0
aI0
asg6
S'BOS'
p416
sg8
g9
sg10
g11
sa(dp417
g2
S'2011-12'
p418
sg4
(lp419
I9
aI2
aI9
aI2
aI0
aI0
aI0
aI0
aI0
aI0
aI0
aI0
aI0
aI2
asg6
S'BOS'
p420
sg8
g9
sg10
g16
sa(dp421
g2
S'2011-12'
p422
sg4
(lp423
I3
aI1
aI3
aI1
aI0
aI0
aI0
aI1
aI0
aI0
aI0
aI0
aI0
aI0
asg6
S'BOS'
p424
sg8
g9
sg10
g16
sa(dp425
g2
S'2011-12'
p426
sg4
(lp427
I1
aI1
aI2
aI0
aI0
aI0
aI1
aI0
aI0
aI0
aI0
aI0
aI0
aI0
asg6
S'IND'
p428
sg8
g9
sg10
g11
sa(dp429
g2
S'2011-12'
p430
sg4
(lp431
I2
aI0
aI2
aI0
aI0
aI0
aI0
aI0
aI0
aI0
aI0
aI0
aI0
aI0
asg6
S'IND'
p432
sg8
g9
sg10
g16
sa(dp433
g2
S'2011-12'
p434
sg4
(lp435
I6
aI3
aI6
aI1
aI0
aI0
aI0
aI0
aI0
aI0
aI0
aI0
aI0
aI0
asg6
S'IND'
p436
sg8
g9
sg10
g11
sa(dp437
g2
S'2011-12'
p438
sg4
(lp439
I1
aI0
aI0
aI1
aI0
aI0
aI0
aI1
aI0
aI0
aI0
aI0
aI0
aI0
asg6
S'IND'
p440
sg8
g9
sg10
g11
sa(dp441
g2
S'2011-12'
p442
sg4
(lp443
I5
aI2
aI3
aI3
aI0
aI0
aI0
aI0
aI0
aI0
aI0
aI0
aI0
aI0
asg6
S'IND'
p444
sg8
g9
sg10
g16
sa(dp445
g2
S'2011-12'
p446
sg4
(lp447
I4
aI1
aI4
aI1
aI0
aI0
aI0
aI0
aI0
aI0
aI0
aI0
aI0
aI0
asg6
S'IND'
p448
sg8
g9
sg10
g16
sa(dp449
g2
S'2011-12'
p450
sg4
(lp451
I4
aI2
aI6
aI0
aI0
aI0
aI3
aI0
aI0
aI0
aI0
aI0
aI0
aI0
asg6
S'NYK'
p452
sg8
g9
sg10
g16
sa(dp453
g2
S'2011-12'
p454
sg4
(lp455
I3
aI1
aI3
aI0
aI0
aI0
aI1
aI0
aI0
aI0
aI0
aI0
aI0
aI0
asg6
S'NYK'
p456
sg8
g9
sg10
g11
sa(dp457
g2
S'2011-12'
p458
sg4
(lp459
I6
aI1
aI5
aI0
aI0
aI0
aI1
aI0
aI0
aI0
aI0
aI0
aI0
aI0
asg6
S'NYK'
p460
sg8
g9
sg10
g11
sa(dp461
g2
S'2011-12'
p462
sg4
(lp463
I3
aI3
aI0
aI1
aI0
aI0
aI0
aI0
aI0
aI0
aI0
aI0
aI0
aI0
asg6
S'NYK'
p464
sg8
g9
sg10
g16
sa(dp465
g2
S'2011-12'
p466
sg4
(lp467
I5
aI2
aI4
aI1
aI0
aI0
aI0
aI0
aI1
aI0
aI1
aI0
aI0
aI0
asg6
S'NYK'
p468
sg8
g9
sg10
g16
sa(dp469
g2
S'2012-13'
p470
sg4
(lp471
I5
aI0
aI3
aI0
aI0
aI0
aI0
aI0
aI0
aI0
aI0
aI0
aI0
aI0
asg6
S'SAS'
p472
sg8
g9
sg10
g16
sa(dp473
g2
S'2012-13'
p474
sg4
(lp475
I3
aI3
aI6
aI0
aI0
aI0
aI0
aI0
aI0
aI0
aI0
aI0
aI0
aI0
asg6
S'SAS'
p476
sg8
g9
sg10
g16
sa(dp477
g2
S'2012-13'
p478
sg4
(lp479
I3
aI2
aI4
aI0
aI0
aI0
aI0
aI0
aI0
aI0
aI0
aI0
aI0
aI0
asg6
S'SAS'
p480
sg8
g9
sg10
g11
sa(dp481
g2
S'2012-13'
p482
sg4
(lp483
I0
aI2
aI2
aI0
aI0
aI0
aI0
aI0
aI0
aI0
aI0
aI0
aI0
aI0
asg6
S'SAS'
p484
sg8
g9
sg10
g11
sa(dp485
g2
S'2012-13'
p486
sg4
(lp487
I0
aI0
aI0
aI0
aI0
aI0
aI0
aI0
aI0
aI0
aI0
aI0
aI0
aI0
asg6
S'SAS'
p488
sg8
g9
sg10
g11
sa(dp489
g2
S'2012-13'
p490
sg4
(lp491
I1
aI0
aI1
aI0
aI0
aI0
aI0
aI0
aI0
aI0
aI0
aI0
aI0
aI0
asg6
S'SAS'
p492
sg8
g9
sg10
g16
sa(dp493
g2
S'2012-13'
p494
sg4
(lp495
I1
aI1
aI2
aI0
aI0
aI0
aI0
aI0
aI0
aI0
aI0
aI0
aI0
aI0
asg6
S'SAS'
p496
sg8
g9
sg10
g16
sa(dp497
g2
S'2012-13'
p498
sg4
(lp499
I8
aI0
aI7
aI1
aI0
aI0
aI0
aI0
aI0
aI0
aI0
aI0
aI0
aI0
asg6
S'IND'
p500
sg8
g9
sg10
g16
sa(dp501
g2
S'2012-13'
p502
sg4
(lp503
I4
aI0
aI3
aI1
aI0
aI0
aI0
aI0
aI0
aI0
aI0
aI0
aI0
aI0
asg6
S'IND'
p504
sg8
g9
sg10
g11
sa(dp505
g2
S'2012-13'
p506
sg4
(lp507
I1
aI1
aI0
aI2
aI0
aI0
aI0
aI0
aI0
aI0
aI0
aI0
aI0
aI0
asg6
S'IND'
p508
sg8
g9
sg10
g16
sa(dp509
g2
S'2012-13'
p510
sg4
(lp511
I2
aI1
aI2
aI1
aI0
aI0
aI0
aI0
aI0
aI0
aI0
aI0
aI0
aI0
asg6
S'IND'
p512
sg8
g9
sg10
g11
sa(dp513
g2
S'2012-13'
p514
sg4
(lp515
I3
aI0
aI3
aI0
aI0
aI0
aI0
aI0
aI0
aI0
aI0
aI0
aI0
aI0
asg6
S'IND'
p516
sg8
g9
sg10
g11
sa(dp517
g2
S'2012-13'
p518
sg4
(lp519
I2
aI2
aI3
aI0
aI0
aI0
aI0
aI0
aI0
aI0
aI0
aI0
aI0
aI0
asg6
S'IND'
p520
sg8
g9
sg10
g16
sa(dp521
g2
S'2012-13'
p522
sg4
(lp523
I3
aI1
aI1
aI1
aI0
aI0
aI0
aI1
aI0
aI0
aI0
aI0
aI0
aI0
asg6
S'IND'
p524
sg8
g9
sg10
g16
sa(dp525
g2
S'2012-13'
p526
sg4
(lp527
I5
aI2
aI6
aI0
aI0
aI0
aI1
aI1
aI0
aI0
aI0
aI0
aI0
aI0
asg6
S'CHI'
p528
sg8
g9
sg10
g16
sa(dp529
g2
S'2012-13'
p530
sg4
(lp531
I4
aI1
aI4
aI0
aI0
aI0
aI0
aI0
aI0
aI0
aI0
aI0
aI0
aI0
asg6
S'CHI'
p532
sg8
g9
sg10
g11
sa(dp533
g2
S'2012-13'
p534
sg4
(lp535
I6
aI0
aI5
aI0
aI0
aI0
aI0
aI0
aI0
aI0
aI0
aI0
aI0
aI0
asg6
S'CHI'
p536
sg8
g9
sg10
g11
sa(dp537
g2
S'2012-13'
p538
sg4
(lp539
I1
aI3
aI3
aI1
aI0
aI0
aI0
aI0
aI0
aI0
aI0
aI0
aI0
aI0
asg6
S'CHI'
p540
sg8
g9
sg10
g16
sa(dp541
g2
S'2012-13'
p542
sg4
(lp543
I5
aI1
aI2
aI1
aI0
aI0
aI0
aI0
aI0
aI0
aI0
aI0
aI0
aI0
asg6
S'CHI'
p544
sg8
g9
sg10
g16
sa(dp545
g2
S'2012-13'
p546
sg4
(lp547
I1
aI3
aI3
aI0
aI0
aI0
aI0
aI0
aI0
aI0
aI0
aI0
aI0
aI0
asg6
S'MIL'
p548
sg8
g9
sg10
g11
sa(dp549
g2
S'2012-13'
p550
sg4
(lp551
I1
aI2
aI1
aI0
aI0
aI0
aI0
aI0
aI0
aI0
aI0
aI0
aI0
aI0
asg6
S'MIL'
p552
sg8
g9
sg10
g11
sa(dp553
g2
S'2012-13'
p554
sg4
(lp555
I3
aI1
aI4
aI0
aI0
aI0
aI0
aI0
aI0
aI0
aI0
aI0
aI0
aI0
asg6
S'MIL'
p556
sg8
g9
sg10
g16
sa(dp557
g2
S'2012-13'
p558
sg4
(lp559
I5
aI2
aI3
aI1
aI0
aI0
aI0
aI0
aI0
aI0
aI0
aI0
aI0
aI0
asg6
S'MIL'
p560
sg8
g9
sg10
g16
sa(dp561
g2
S'2013-14'
p562
sg4
(lp563
I4
aI1
aI4
aI0
aI0
aI0
aI0
aI0
aI0
aI0
aI0
aI0
aI0
aI0
asg6
S'SAS'
p564
sg8
g9
sg10
g11
sa(dp565
g2
S'2013-14'
p566
sg4
(lp567
I3
aI0
aI1
aI2
aI0
aI0
aI0
aI0
aI0
aI0
aI0
aI0
aI0
aI0
asg6
S'SAS'
p568
sg8
g9
sg10
g16
sa(dp569
g2
S'2013-14'
p570
sg4
(lp571
I1
aI1
aI1
aI0
aI0
aI0
aI0
aI0
aI0
aI0
aI0
aI0
aI0
aI0
asg6
S'SAS'
p572
sg8
g9
sg10
g16
sa(dp573
g2
S'2013-14'
p574
sg4
(lp575
I2
aI0
aI1
aI1
aI0
aI0
aI1
aI0
aI0
aI0
aI0
aI0
aI0
aI0
asg6
S'SAS'
p576
sg8
g9
sg10
g11
sa(dp577
g2
S'2013-14'
p578
sg4
(lp579
I3
aI0
aI2
aI1
aI0
aI0
aI0
aI0
aI0
aI0
aI0
aI0
aI0
aI0
asg6
S'SAS'
p580
sg8
g9
sg10
g11
sa(dp581
g2
S'2013-14'
p582
sg4
(lp583
I5
aI0
aI4
aI0
aI0
aI0
aI0
aI0
aI0
aI0
aI0
aI0
aI0
aI0
asg6
S'IND'
p584
sg8
g9
sg10
g16
sa(dp585
g2
S'2013-14'
p586
sg4
(lp587
I0
aI1
aI1
aI0
aI1
aI0
aI0
aI0
aI0
aI0
aI0
aI0
aI0
aI0
asg6
S'IND'
p588
sg8
g9
sg10
g11
sa(dp589
g2
S'2013-14'
p590
sg4
(lp591
I3
aI0
aI1
aI0
aI0
aI0
aI0
aI0
aI0
aI0
aI0
aI0
aI0
aI0
asg6
S'IND'
p592
sg8
g9
sg10
g16
sa(dp593
g2
S'2013-14'
p594
sg4
(lp595
I3
aI2
aI4
aI0
aI0
aI0
aI0
aI0
aI0
aI0
aI0
aI0
aI0
aI0
asg6
S'IND'
p596
sg8
g9
sg10
g16
sa(dp597
g2
S'2013-14'
p598
sg4
(lp599
I1
aI2
aI2
aI1
aI0
aI0
aI0
aI0
aI0
aI0
aI0
aI0
aI0
aI0
asg6
S'IND'
p600
sg8
g9
sg10
g11
sa(dp601
g2
S'2013-14'
p602
sg4
(lp603
I2
aI0
aI0
aI0
aI0
aI0
aI0
aI0
aI0
aI0
aI0
aI0
aI0
aI0
asg6
S'IND'
p604
sg8
g9
sg10
g11
sa(dp605
g2
S'2013-14'
p606
sg4
(lp607
I8
aI1
aI7
aI1
aI0
aI0
aI0
aI0
aI0
aI0
aI0
aI0
aI0
aI0
asg6
S'BKN'
p608
sg8
g9
sg10
g16
sa(dp609
g2
S'2013-14'
p610
sg4
(lp611
I6
aI3
aI6
aI2
aI0
aI0
aI0
aI0
aI0
aI0
aI0
aI0
aI2
aI0
asg6
S'BKN'
p612
sg8
g9
sg10
g11
sa(dp613
g2
S'2013-14'
p614
sg4
(lp615
I4
aI1
aI4
aI0
aI0
aI0
aI0
aI0
aI1
aI0
aI0
aI0
aI0
aI0
asg6
S'BKN'
p616
sg8
g9
sg10
g11
sa(dp617
g2
S'2013-14'
p618
sg4
(lp619
I2
aI1
aI2
aI1
aI0
aI0
aI0
aI0
aI0
aI0
aI0
aI0
aI0
aI0
asg6
S'BKN'
p620
sg8
g9
sg10
g16
sa(dp621
g2
S'2013-14'
p622
sg4
(lp623
I1
aI0
aI1
aI0
aI0
aI0
aI0
aI0
aI0
aI0
aI0
aI0
aI0
aI0
asg6
S'BKN'
p624
sg8
g9
sg10
g16
sa(dp625
g2
S'2013-14'
p626
sg4
(lp627
I4
aI1
aI5
aI0
aI1
aI1
aI0
aI0
aI0
aI0
aI0
aI0
aI0
aI0
asg6
S'CHA'
p628
sg8
g9
sg10
g11
sa(dp629
g2
S'2013-14'
p630
sg4
(lp631
I4
aI1
aI4
aI0
aI1
aI0
aI0
aI0
aI0
aI0
aI0
aI0
aI0
aI0
asg6
S'CHA'
p632
sg8
g9
sg10
g11
sa(dp633
g2
S'2013-14'
p634
sg4
(lp635
I4
aI3
aI5
aI0
aI0
aI0
aI0
aI0
aI0
aI0
aI0
aI0
aI0
aI0
asg6
S'CHA'
p636
sg8
g9
sg10
g16
sa(dp637
g2
S'2013-14'
p638
sg4
(lp639
I3
aI2
aI4
aI1
aI0
aI0
aI0
aI0
aI0
aI0
aI0
aI0
aI0
aI0
asg6
S'CHA'
p640
sg8
g9
sg10
g16
sa(dp641
g2
S'2014-15'
p642
sg4
(lp643
I2
aI2
aI2
aI2
aI0
aI0
aI0
aI0
aI0
aI0
aI0
aI0
aI0
aI0
asg6
S'GSW'
p644
sg8
g9
sg10
g16
sa(dp645
g2
S'2014-15'
p646
sg4
(lp647
I5
aI0
aI1
aI2
aI0
aI0
aI1
aI0
aI0
aI0
aI0
aI0
aI0
aI0
asg6
S'GSW'
p648
sg8
g9
sg10
g11
sa(dp649
g2
S'2014-15'
p650
sg4
(lp651
I2
aI3
aI3
aI2
aI0
aI0
aI0
aI0
aI0
aI0
aI0
aI0
aI0
aI0
asg6
S'GSW'
p652
sg8
g9
sg10
g16
sa(dp653
g2
S'2014-15'
p654
sg4
(lp655
I5
aI1
aI5
aI1
aI0
aI0
aI0
aI0
aI0
aI0
aI0
aI0
aI0
aI0
asg6
S'GSW'
p656
sg8
g9
sg10
g16
sa(dp657
g2
S'2014-15'
p658
sg4
(lp659
I6
aI3
aI8
aI1
aI0
aI0
aI0
aI0
aI0
aI0
aI0
aI0
aI0
aI0
asg6
S'GSW'
p660
sg8
g9
sg10
g11
sa(dp661
g2
S'2014-15'
p662
sg4
(lp663
I3
aI2
aI3
aI2
aI0
aI0
aI0
aI0
aI0
aI0
aI0
aI0
aI0
aI0
asg6
S'GSW'
p664
sg8
g9
sg10
g11
sa(dp665
g2
S'2014-15'
p666
sg4
(lp667
I0
aI2
aI1
aI1
aI0
aI0
aI0
aI0
aI0
aI0
aI0
aI0
aI0
aI0
asg6
S'ATL'
p668
sg8
g9
sg10
g16
sa(dp669
g2
S'2014-15'
p670
sg4
(lp671
I3
aI2
aI5
aI0
aI0
aI0
aI0
aI0
aI0
aI0
aI0
aI0
aI0
aI0
asg6
S'ATL'
p672
sg8
g9
sg10
g16
sa(dp673
g2
S'2014-15'
p674
sg4
(lp675
I3
aI2
aI3
aI1
aI0
aI0
aI0
aI0
aI1
aI0
aI1
aI0
aI0
aI0
asg6
S'ATL'
p676
sg8
g9
sg10
g11
sa(dp677
g2
S'2014-15'
p678
sg4
(lp679
I3
aI1
aI3
aI0
aI0
aI0
aI1
aI0
aI0
aI0
aI0
aI0
aI0
aI0
asg6
S'ATL'
p680
sg8
g9
sg10
g11
sa(dp681
g2
S'2014-15'
p682
sg4
(lp683
I0
aI1
aI1
aI0
aI0
aI0
aI0
aI0
aI0
aI0
aI0
aI0
aI0
aI0
asg6
S'CHI'
p684
sg8
g9
sg10
g11
sa(dp685
g2
S'2014-15'
p686
sg4
(lp687
I5
aI2
aI4
aI1
aI0
aI0
aI0
aI0
aI0
aI0
aI0
aI0
aI0
aI0
asg6
S'CHI'
p688
sg8
g9
sg10
g16
sa(dp689
g2
S'2014-15'
p690
sg4
(lp691
I2
aI0
aI2
aI0
aI0
aI0
aI0
aI0
aI0
aI0
aI0
aI0
aI0
aI0
asg6
S'CHI'
p692
sg8
g9
sg10
g11
sa(dp693
g2
S'2014-15'
p694
sg4
(lp695
I6
aI0
aI3
aI1
aI0
aI0
aI1
aI0
aI0
aI0
aI0
aI0
aI0
aI0
asg6
S'CHI'
p696
sg8
g9
sg10
g11
sa(dp697
g2
S'2014-15'
p698
sg4
(lp699
I3
aI2
aI4
aI0
aI0
aI0
aI0
aI0
aI0
aI0
aI0
aI0
aI0
aI0
asg6
S'CHI'
p700
sg8
g9
sg10
g16
sa(dp701
g2
S'2014-15'
p702
sg4
(lp703
I1
aI0
aI0
aI1
aI0
aI0
aI0
aI0
aI0
aI0
aI0
aI0
aI0
aI0
asg6
S'CHI'
p704
sg8
g9
sg10
g16
sa(dp705
g2
S'2014-15'
p706
sg4
(lp707
I3
aI2
aI3
aI2
aI0
aI0
aI0
aI0
aI0
aI0
aI0
aI0
aI0
aI0
asg6
S'BOS'
p708
sg8
g9
sg10
g11
sa(dp709
g2
S'2014-15'
p710
sg4
(lp711
I1
aI1
aI1
aI0
aI0
aI0
aI0
aI0
aI1
aI0
aI1
aI0
aI0
aI0
asg6
S'BOS'
p712
sg8
g9
sg10
g11
sa(dp713
g2
S'2014-15'
p714
sg4
(lp715
I3
aI1
aI4
aI0
aI0
aI0
aI0
aI0
aI0
aI0
aI0
aI0
aI0
aI0
asg6
S'BOS'
p716
sg8
g9
sg10
g16
sa(dp717
g2
S'2014-15'
p718
sg4
(lp719
I1
aI1
aI2
aI0
aI0
aI0
aI0
aI0
aI0
aI0
aI0
aI0
aI0
aI0
asg6
S'BOS'
p720
sg8
g9
sg10
g16
sa(dp721
g2
S'2015-16'
p722
sg4
(lp723
I3
aI2
aI4
aI0
aI1
aI0
aI0
aI0
aI0
aI0
aI0
aI0
aI0
aI0
asg6
S'GSW'
p724
sg8
g9
sg10
g11
sa(dp725
g2
S'2015-16'
p726
sg4
(lp727
I3
aI1
aI3
aI1
aI0
aI0
aI0
aI0
aI0
aI0
aI0
aI0
aI0
aI0
asg6
S'GSW'
p728
sg8
g9
sg10
g16
sa(dp729
g2
S'2015-16'
p730
sg4
(lp731
I4
aI1
aI1
aI2
aI0
aI0
aI0
aI0
aI0
aI0
aI0
aI0
aI0
aI0
asg6
S'GSW'
p732
sg8
g9
sg10
g11
sa(dp733
g2
S'2015-16'
p734
sg4
(lp735
I1
aI1
aI1
aI1
aI0
aI0
aI0
aI0
aI0
aI0
aI0
aI0
aI0
aI0
asg6
S'GSW'
p736
sg8
g9
sg10
g16
sa(dp737
g2
S'2015-16'
p738
sg4
(lp739
I1
aI2
aI2
aI0
aI0
aI0
aI0
aI0
aI0
aI0
aI0
aI0
aI0
aI0
asg6
S'GSW'
p740
sg8
g9
sg10
g16
sa(dp741
g2
S'2015-16'
p742
sg4
(lp743
I2
aI0
aI2
aI0
aI0
aI0
aI0
aI0
aI0
aI0
aI0
aI0
aI0
aI0
asg6
S'GSW'
p744
sg8
g9
sg10
g11
sa(dp745
g2
S'2015-16'
p746
sg4
(lp747
I2
aI0
aI1
aI1
aI0
aI0
aI0
aI0
aI0
aI0
aI0
aI0
aI0
aI0
asg6
S'GSW'
p748
sg8
g9
sg10
g11
sa(dp749
g2
S'2015-16'
p750
sg4
(lp751
I2
aI1
aI1
aI2
aI1
aI0
aI0
aI0
aI0
aI0
aI0
aI0
aI0
aI0
asg6
S'TOR'
p752
sg8
g9
sg10
g11
sa(dp753
g2
S'2015-16'
p754
sg4
(lp755
I0
aI2
aI1
aI0
aI0
aI0
aI0
aI0
aI0
aI0
aI0
aI0
aI0
aI0
asg6
S'TOR'
p756
sg8
g9
sg10
g16
sa(dp757
g2
S'2015-16'
p758
sg4
(lp759
I3
aI0
aI3
aI0
aI0
aI0
aI0
aI0
aI0
aI0
aI0
aI0
aI0
aI0
asg6
S'TOR'
p760
sg8
g9
sg10
g11
sa(dp761
g2
S'2015-16'
p762
sg4
(lp763
I2
aI1
aI1
aI1
aI0
aI0
aI0
aI0
aI1
aI0
aI1
aI0
aI0
aI0
asg6
S'TOR'
p764
sg8
g9
sg10
g11
sa(dp765
g2
S'2015-16'
p766
sg4
(lp767
I5
aI4
aI4
aI4
aI0
aI0
aI0
aI0
aI0
aI0
aI0
aI0
aI0
aI0
asg6
S'TOR'
p768
sg8
g9
sg10
g16
sa(dp769
g2
S'2015-16'
p770
sg4
(lp771
I1
aI2
aI1
aI0
aI0
aI0
aI0
aI0
aI0
aI0
aI0
aI0
aI0
aI0
asg6
S'TOR'
p772
sg8
g9
sg10
g16
sa(dp773
g2
S'2015-16'
p774
sg4
(lp775
I0
aI2
aI0
aI1
aI0
aI0
aI0
aI0
aI0
aI0
aI0
aI0
aI0
aI0
asg6
S'ATL'
p776
sg8
g9
sg10
g11
sa(dp777
g2
S'2015-16'
p778
sg4
(lp779
I2
aI1
aI2
aI1
aI1
aI0
aI0
aI0
aI1
aI0
aI1
aI0
aI0
aI0
asg6
S'ATL'
p780
sg8
g9
sg10
g11
sa(dp781
g2
S'2015-16'
p782
sg4
(lp783
I2
aI3
aI3
aI1
aI0
aI0
aI0
aI0
aI0
aI0
aI0
aI0
aI0
aI0
asg6
S'ATL'
p784
sg8
g9
sg10
g16
sa(dp785
g2
S'2015-16'
p786
sg4
(lp787
I1
aI0
aI0
aI0
aI0
aI0
aI0
aI0
aI0
aI0
aI0
aI0
aI0
aI0
asg6
S'ATL'
p788
sg8
g9
sg10
g16
sa(dp789
g2
S'2015-16'
p790
sg4
(lp791
I2
aI0
aI1
aI0
aI0
aI0
aI0
aI0
aI0
aI0
aI0
aI0
aI0
aI0
asg6
S'DET'
p792
sg8
g9
sg10
g11
sa(dp793
g2
S'2015-16'
p794
sg4
(lp795
I2
aI1
aI1
aI1
aI0
aI0
aI0
aI0
aI0
aI0
aI0
aI0
aI0
aI0
asg6
S'DET'
p796
sg8
g9
sg10
g11
sa(dp797
g2
S'2015-16'
p798
sg4
(lp799
I0
aI2
aI1
aI0
aI0
aI0
aI0
aI0
aI0
aI0
aI0
aI0
aI0
aI0
asg6
S'DET'
p800
sg8
g9
sg10
g16
sa(dp801
g2
S'2015-16'
p802
sg4
(lp803
I2
aI0
aI2
aI0
aI0
aI0
aI0
aI0
aI0
aI0
aI0
aI0
aI0
aI0
asg6
S'DET'
p804
sg8
g9
sg10
g16
sa.