(lp0
(dp1
S'missflg2'
p2
I0
sS'opp'
p3
S'DET'
p4
sS'miss3'
p5
I0
sS'missflg1'
p6
I0
sS'makeflg2'
p7
I0
sS'season'
p8
S'2005-06'
p9
sS'makeflg1'
p10
I0
sS'makecp'
p11
I0
sS'make2'
p12
I2
sS'make3'
p13
I0
sS'location'
p14
S'away'
p15
sS'misscp'
p16
I0
sS'misst'
p17
I1
sS'maket'
p18
I0
sS'miss1'
p19
I1
sS'seasonType'
p20
S'Playoffs'
p21
sS'make1'
p22
I3
sS'miss2'
p23
I1
sa(dp24
g2
I0
sg3
S'DET'
p25
sg5
I0
sg6
I0
sg7
I0
sg8
S'2005-06'
p26
sg10
I0
sg11
I0
sg12
I6
sg13
I0
sg14
S'home'
p27
sg16
I0
sg17
I0
sg18
I0
sg19
I0
sg20
g21
sg22
I9
sg23
I3
sa(dp28
g2
I0
sg3
S'DET'
p29
sg5
I0
sg6
I0
sg7
I0
sg8
S'2005-06'
p30
sg10
I0
sg11
I0
sg12
I2
sg13
I0
sg14
g15
sg16
I0
sg17
I0
sg18
I0
sg19
I1
sg20
g21
sg22
I3
sg23
I1
sa(dp31
g2
I0
sg3
S'DET'
p32
sg5
I0
sg6
I0
sg7
I0
sg8
S'2005-06'
p33
sg10
I0
sg11
I0
sg12
I5
sg13
I0
sg14
g27
sg16
I0
sg17
I0
sg18
I0
sg19
I5
sg20
g21
sg22
I0
sg23
I0
sa(dp34
g2
I0
sg3
S'DET'
p35
sg5
I0
sg6
I0
sg7
I0
sg8
S'2005-06'
p36
sg10
I0
sg11
I0
sg12
I1
sg13
I0
sg14
g27
sg16
I0
sg17
I0
sg18
I0
sg19
I0
sg20
g21
sg22
I1
sg23
I0
sa(dp37
g2
I0
sg3
S'DET'
p38
sg5
I0
sg6
I0
sg7
I0
sg8
S'2005-06'
p39
sg10
I0
sg11
I0
sg12
I3
sg13
I0
sg14
g15
sg16
I0
sg17
I0
sg18
I0
sg19
I2
sg20
g21
sg22
I3
sg23
I0
sa(dp40
g2
I0
sg3
S'DET'
p41
sg5
I0
sg6
I0
sg7
I0
sg8
S'2005-06'
p42
sg10
I0
sg11
I0
sg12
I1
sg13
I0
sg14
g15
sg16
I0
sg17
I0
sg18
I0
sg19
I0
sg20
g21
sg22
I1
sg23
I0
sa(dp43
g2
I0
sg3
S'WAS'
p44
sg5
I0
sg6
I0
sg7
I0
sg8
S'2005-06'
p45
sg10
I0
sg11
I0
sg12
I0
sg13
I0
sg14
g15
sg16
I0
sg17
I0
sg18
I0
sg19
I1
sg20
g21
sg22
I1
sg23
I1
sa(dp46
g2
I0
sg3
S'WAS'
p47
sg5
I0
sg6
I0
sg7
I0
sg8
S'2005-06'
p48
sg10
I0
sg11
I0
sg12
I8
sg13
I0
sg14
g27
sg16
I0
sg17
I0
sg18
I0
sg19
I1
sg20
g21
sg22
I9
sg23
I0
sa(dp49
g2
I0
sg3
S'WAS'
p50
sg5
I0
sg6
I0
sg7
I0
sg8
S'2005-06'
p51
sg10
I0
sg11
I0
sg12
I3
sg13
I0
sg14
g15
sg16
I0
sg17
I0
sg18
I0
sg19
I2
sg20
g21
sg22
I2
sg23
I0
sa(dp52
g2
I0
sg3
S'WAS'
p53
sg5
I0
sg6
I0
sg7
I0
sg8
S'2005-06'
p54
sg10
I0
sg11
I0
sg12
I1
sg13
I0
sg14
g15
sg16
I0
sg17
I0
sg18
I0
sg19
I1
sg20
g21
sg22
I5
sg23
I2
sa(dp55
g2
I0
sg3
S'WAS'
p56
sg5
I0
sg6
I0
sg7
I0
sg8
S'2005-06'
p57
sg10
I0
sg11
I0
sg12
I5
sg13
I0
sg14
g27
sg16
I0
sg17
I1
sg18
I0
sg19
I2
sg20
g21
sg22
I6
sg23
I1
sa(dp58
g2
I0
sg3
S'WAS'
p59
sg5
I0
sg6
I0
sg7
I0
sg8
S'2005-06'
p60
sg10
I0
sg11
I0
sg12
I2
sg13
I0
sg14
g27
sg16
I0
sg17
I0
sg18
I0
sg19
I2
sg20
g21
sg22
I5
sg23
I2
sa(dp61
g2
I0
sg3
S'SAS'
p62
sg5
I0
sg6
I0
sg7
I0
sg8
S'2006-07'
p63
sg10
I0
sg11
I0
sg12
I1
sg13
I0
sg14
g27
sg16
I0
sg17
I0
sg18
I0
sg19
I2
sg20
g21
sg22
I1
sg23
I2
sa(dp64
g2
I0
sg3
S'SAS'
p65
sg5
I0
sg6
I0
sg7
I0
sg8
S'2006-07'
p66
sg10
I0
sg11
I1
sg12
I2
sg13
I0
sg14
g27
sg16
I1
sg17
I0
sg18
I0
sg19
I0
sg20
g21
sg22
I4
sg23
I0
sa(dp67
g2
I0
sg3
S'SAS'
p68
sg5
I0
sg6
I0
sg7
I0
sg8
S'2006-07'
p69
sg10
I0
sg11
I0
sg12
I2
sg13
I0
sg14
g15
sg16
I0
sg17
I0
sg18
I0
sg19
I2
sg20
g21
sg22
I5
sg23
I2
sa(dp70
g2
I0
sg3
S'SAS'
p71
sg5
I0
sg6
I0
sg7
I0
sg8
S'2006-07'
p72
sg10
I0
sg11
I0
sg12
I2
sg13
I0
sg14
g15
sg16
I0
sg17
I0
sg18
I0
sg19
I0
sg20
g21
sg22
I2
sg23
I0
sa(dp73
g2
I0
sg3
S'DET'
p74
sg5
I0
sg6
I0
sg7
I0
sg8
S'2006-07'
p75
sg10
I0
sg11
I0
sg12
I8
sg13
I0
sg14
g27
sg16
I0
sg17
I0
sg18
I1
sg19
I5
sg20
g21
sg22
I5
sg23
I0
sa(dp76
g2
I0
sg3
S'DET'
p77
sg5
I0
sg6
I0
sg7
I0
sg8
S'2006-07'
p78
sg10
I0
sg11
I0
sg12
I4
sg13
I0
sg14
g15
sg16
I0
sg17
I0
sg18
I0
sg19
I2
sg20
g21
sg22
I6
sg23
I2
sa(dp79
g2
I0
sg3
S'DET'
p80
sg5
I0
sg6
I0
sg7
I0
sg8
S'2006-07'
p81
sg10
I0
sg11
I0
sg12
I4
sg13
I0
sg14
g27
sg16
I0
sg17
I0
sg18
I0
sg19
I1
sg20
g21
sg22
I4
sg23
I0
sa(dp82
g2
I0
sg3
S'DET'
p83
sg5
I0
sg6
I0
sg7
I0
sg8
S'2006-07'
p84
sg10
I0
sg11
I0
sg12
I2
sg13
I0
sg14
g27
sg16
I0
sg17
I0
sg18
I0
sg19
I1
sg20
g21
sg22
I4
sg23
I2
sa(dp85
g2
I0
sg3
S'DET'
p86
sg5
I0
sg6
I0
sg7
I0
sg8
S'2006-07'
p87
sg10
I0
sg11
I0
sg12
I3
sg13
I0
sg14
g15
sg16
I0
sg17
I0
sg18
I0
sg19
I2
sg20
g21
sg22
I2
sg23
I0
sa(dp88
g2
I0
sg3
S'DET'
p89
sg5
I0
sg6
I0
sg7
I0
sg8
S'2006-07'
p90
sg10
I0
sg11
I0
sg12
I0
sg13
I0
sg14
g15
sg16
I0
sg17
I0
sg18
I0
sg19
I0
sg20
g21
sg22
I0
sg23
I0
sa(dp91
g2
I0
sg3
S'NJN'
p92
sg5
I0
sg6
I0
sg7
I0
sg8
S'2006-07'
p93
sg10
I0
sg11
I0
sg12
I2
sg13
I0
sg14
g15
sg16
I0
sg17
I0
sg18
I0
sg19
I1
sg20
g21
sg22
I4
sg23
I2
sa(dp94
g2
I0
sg3
S'NJN'
p95
sg5
I0
sg6
I0
sg7
I0
sg8
S'2006-07'
p96
sg10
I0
sg11
I0
sg12
I5
sg13
I0
sg14
g27
sg16
I0
sg17
I0
sg18
I1
sg19
I1
sg20
g21
sg22
I4
sg23
I0
sa(dp97
g2
I0
sg3
S'NJN'
p98
sg5
I0
sg6
I0
sg7
I0
sg8
S'2006-07'
p99
sg10
I0
sg11
I0
sg12
I6
sg13
I0
sg14
g15
sg16
I0
sg17
I0
sg18
I0
sg19
I4
sg20
g21
sg22
I4
sg23
I1
sa(dp100
g2
I0
sg3
S'NJN'
p101
sg5
I0
sg6
I0
sg7
I0
sg8
S'2006-07'
p102
sg10
I0
sg11
I0
sg12
I3
sg13
I0
sg14
g15
sg16
I0
sg17
I0
sg18
I1
sg19
I0
sg20
g21
sg22
I3
sg23
I0
sa(dp103
g2
I0
sg3
S'NJN'
p104
sg5
I0
sg6
I0
sg7
I0
sg8
S'2006-07'
p105
sg10
I0
sg11
I0
sg12
I4
sg13
I0
sg14
g27
sg16
I0
sg17
I0
sg18
I1
sg19
I3
sg20
g21
sg22
I4
sg23
I1
sa(dp106
g2
I0
sg3
S'NJN'
p107
sg5
I0
sg6
I0
sg7
I0
sg8
S'2006-07'
p108
sg10
I0
sg11
I0
sg12
I3
sg13
I0
sg14
g27
sg16
I0
sg17
I0
sg18
I0
sg19
I2
sg20
g21
sg22
I1
sg23
I0
sa(dp109
g2
I0
sg3
S'WAS'
p110
sg5
I0
sg6
I0
sg7
I0
sg8
S'2006-07'
p111
sg10
I0
sg11
I0
sg12
I7
sg13
I0
sg14
g15
sg16
I0
sg17
I0
sg18
I0
sg19
I2
sg20
g21
sg22
I7
sg23
I1
sa(dp112
g2
I0
sg3
S'WAS'
p113
sg5
I0
sg6
I0
sg7
I0
sg8
S'2006-07'
p114
sg10
I0
sg11
I0
sg12
I2
sg13
I0
sg14
g15
sg16
I0
sg17
I0
sg18
I0
sg19
I1
sg20
g21
sg22
I3
sg23
I1
sa(dp115
g2
I0
sg3
S'WAS'
p116
sg5
I0
sg6
I0
sg7
I0
sg8
S'2006-07'
p117
sg10
I0
sg11
I0
sg12
I5
sg13
I0
sg14
g27
sg16
I0
sg17
I0
sg18
I0
sg19
I1
sg20
g21
sg22
I6
sg23
I1
sa(dp118
g2
I0
sg3
S'WAS'
p119
sg5
I0
sg6
I0
sg7
I0
sg8
S'2006-07'
p120
sg10
I0
sg11
I0
sg12
I4
sg13
I0
sg14
g27
sg16
I0
sg17
I0
sg18
I0
sg19
I2
sg20
g21
sg22
I5
sg23
I0
sa(dp121
g2
I0
sg3
S'BOS'
p122
sg5
I0
sg6
I0
sg7
I0
sg8
S'2007-08'
p123
sg10
I0
sg11
I0
sg12
I6
sg13
I0
sg14
g15
sg16
I0
sg17
I1
sg18
I2
sg19
I3
sg20
g21
sg22
I6
sg23
I1
sa(dp124
g2
I0
sg3
S'BOS'
p125
sg5
I0
sg6
I0
sg7
I0
sg8
S'2007-08'
p126
sg10
I0
sg11
I0
sg12
I6
sg13
I0
sg14
g27
sg16
I0
sg17
I0
sg18
I0
sg19
I1
sg20
g21
sg22
I7
sg23
I1
sa(dp127
g2
I0
sg3
S'BOS'
p128
sg5
I0
sg6
I0
sg7
I0
sg8
S'2007-08'
p129
sg10
I0
sg11
I0
sg12
I6
sg13
I0
sg14
g15
sg16
I0
sg17
I0
sg18
I0
sg19
I2
sg20
g21
sg22
I5
sg23
I0
sa(dp130
g2
I0
sg3
S'BOS'
p131
sg5
I0
sg6
I0
sg7
I0
sg8
S'2007-08'
p132
sg10
I0
sg11
I0
sg12
I2
sg13
I0
sg14
g27
sg16
I0
sg17
I0
sg18
I0
sg19
I2
sg20
g21
sg22
I3
sg23
I1
sa(dp133
g2
I0
sg3
S'BOS'
p134
sg5
I0
sg6
I0
sg7
I1
sg8
S'2007-08'
p135
sg10
I1
sg11
I0
sg12
I3
sg13
I0
sg14
g27
sg16
I0
sg17
I0
sg18
I0
sg19
I2
sg20
g21
sg22
I3
sg23
I2
sa(dp136
g2
I0
sg3
S'BOS'
p137
sg5
I0
sg6
I0
sg7
I0
sg8
S'2007-08'
p138
sg10
I0
sg11
I0
sg12
I5
sg13
I0
sg14
g15
sg16
I0
sg17
I1
sg18
I0
sg19
I2
sg20
g21
sg22
I4
sg23
I1
sa(dp139
g2
I0
sg3
S'BOS'
p140
sg5
I0
sg6
I0
sg7
I1
sg8
S'2007-08'
p141
sg10
I1
sg11
I0
sg12
I4
sg13
I0
sg14
g15
sg16
I0
sg17
I0
sg18
I0
sg19
I2
sg20
g21
sg22
I2
sg23
I0
sa(dp142
g2
I0
sg3
S'WAS'
p143
sg5
I0
sg6
I0
sg7
I0
sg8
S'2007-08'
p144
sg10
I0
sg11
I0
sg12
I4
sg13
I0
sg14
g15
sg16
I0
sg17
I0
sg18
I0
sg19
I0
sg20
g21
sg22
I6
sg23
I0
sa(dp145
g2
I0
sg3
S'WAS'
p146
sg5
I0
sg6
I0
sg7
I0
sg8
S'2007-08'
p147
sg10
I0
sg11
I0
sg12
I8
sg13
I0
sg14
g27
sg16
I0
sg17
I0
sg18
I0
sg19
I2
sg20
g21
sg22
I7
sg23
I1
sa(dp148
g2
I0
sg3
S'WAS'
p149
sg5
I0
sg6
I1
sg7
I1
sg8
S'2007-08'
p150
sg10
I0
sg11
I0
sg12
I4
sg13
I1
sg14
g15
sg16
I0
sg17
I0
sg18
I0
sg19
I3
sg20
g21
sg22
I3
sg23
I1
sa(dp151
g2
I0
sg3
S'WAS'
p152
sg5
I0
sg6
I0
sg7
I0
sg8
S'2007-08'
p153
sg10
I0
sg11
I0
sg12
I0
sg13
I0
sg14
g15
sg16
I0
sg17
I0
sg18
I0
sg19
I1
sg20
g21
sg22
I2
sg23
I1
sa(dp154
g2
I0
sg3
S'WAS'
p155
sg5
I0
sg6
I0
sg7
I1
sg8
S'2007-08'
p156
sg10
I1
sg11
I0
sg12
I6
sg13
I0
sg14
g27
sg16
I0
sg17
I0
sg18
I0
sg19
I6
sg20
g21
sg22
I2
sg23
I1
sa(dp157
g2
I0
sg3
S'WAS'
p158
sg5
I0
sg6
I0
sg7
I0
sg8
S'2007-08'
p159
sg10
I0
sg11
I0
sg12
I3
sg13
I0
sg14
g27
sg16
I0
sg17
I0
sg18
I0
sg19
I2
sg20
g21
sg22
I5
sg23
I4
sa(dp160
g2
I0
sg3
S'ORL'
p161
sg5
I0
sg6
I0
sg7
I0
sg8
S'2008-09'
p162
sg10
I0
sg11
I0
sg12
I4
sg13
I0
sg14
g15
sg16
I0
sg17
I0
sg18
I0
sg19
I3
sg20
g21
sg22
I3
sg23
I1
sa(dp163
g2
I0
sg3
S'ORL'
p164
sg5
I0
sg6
I0
sg7
I0
sg8
S'2008-09'
p165
sg10
I0
sg11
I2
sg12
I5
sg13
I0
sg14
g27
sg16
I0
sg17
I0
sg18
I0
sg19
I2
sg20
g21
sg22
I8
sg23
I2
sa(dp166
g2
I0
sg3
S'ORL'
p167
sg5
I0
sg6
I0
sg7
I0
sg8
S'2008-09'
p168
sg10
I0
sg11
I0
sg12
I7
sg13
I0
sg14
g15
sg16
I0
sg17
I0
sg18
I0
sg19
I3
sg20
g21
sg22
I7
sg23
I1
sa(dp169
g2
I0
sg3
S'ORL'
p170
sg5
I0
sg6
I0
sg7
I0
sg8
S'2008-09'
p171
sg10
I0
sg11
I0
sg12
I7
sg13
I1
sg14
g15
sg16
I0
sg17
I0
sg18
I0
sg19
I2
sg20
g21
sg22
I10
sg23
I4
sa(dp172
g2
I0
sg3
S'ORL'
p173
sg5
I0
sg6
I0
sg7
I0
sg8
S'2008-09'
p174
sg10
I0
sg11
I0
sg12
I5
sg13
I0
sg14
g27
sg16
I0
sg17
I0
sg18
I0
sg19
I2
sg20
g21
sg22
I5
sg23
I0
sa(dp175
g2
I0
sg3
S'ORL'
p176
sg5
I0
sg6
I0
sg7
I0
sg8
S'2008-09'
p177
sg10
I0
sg11
I0
sg12
I2
sg13
I0
sg14
g27
sg16
I0
sg17
I0
sg18
I0
sg19
I2
sg20
g21
sg22
I4
sg23
I2
sa(dp178
g2
I0
sg3
S'ATL'
p179
sg5
I0
sg6
I0
sg7
I0
sg8
S'2008-09'
p180
sg10
I0
sg11
I0
sg12
I4
sg13
I0
sg14
g15
sg16
I0
sg17
I0
sg18
I0
sg19
I3
sg20
g21
sg22
I2
sg23
I0
sa(dp181
g2
I0
sg3
S'ATL'
p182
sg5
I0
sg6
I0
sg7
I0
sg8
S'2008-09'
p183
sg10
I0
sg11
I0
sg12
I7
sg13
I0
sg14
g15
sg16
I0
sg17
I1
sg18
I1
sg19
I3
sg20
g21
sg22
I4
sg23
I0
sa(dp184
g2
I0
sg3
S'ATL'
p185
sg5
I0
sg6
I0
sg7
I0
sg8
S'2008-09'
p186
sg10
I0
sg11
I0
sg12
I4
sg13
I0
sg14
g27
sg16
I0
sg17
I0
sg18
I0
sg19
I4
sg20
g21
sg22
I2
sg23
I2
sa(dp187
g2
I0
sg3
S'ATL'
p188
sg5
I0
sg6
I0
sg7
I0
sg8
S'2008-09'
p189
sg10
I0
sg11
I0
sg12
I4
sg13
I0
sg14
g27
sg16
I0
sg17
I0
sg18
I0
sg19
I1
sg20
g21
sg22
I4
sg23
I0
sa(dp190
g2
I0
sg3
S'DET'
p191
sg5
I0
sg6
I0
sg7
I0
sg8
S'2008-09'
p192
sg10
I0
sg11
I0
sg12
I7
sg13
I1
sg14
g15
sg16
I0
sg17
I0
sg18
I0
sg19
I0
sg20
g21
sg22
I8
sg23
I1
sa(dp193
g2
I0
sg3
S'DET'
p194
sg5
I0
sg6
I0
sg7
I0
sg8
S'2008-09'
p195
sg10
I0
sg11
I0
sg12
I2
sg13
I0
sg14
g15
sg16
I0
sg17
I0
sg18
I0
sg19
I2
sg20
g21
sg22
I5
sg23
I2
sa(dp196
g2
I0
sg3
S'DET'
p197
sg5
I0
sg6
I0
sg7
I0
sg8
S'2008-09'
p198
sg10
I0
sg11
I0
sg12
I7
sg13
I0
sg14
g27
sg16
I0
sg17
I0
sg18
I1
sg19
I3
sg20
g21
sg22
I5
sg23
I1
sa(dp199
g2
I0
sg3
S'DET'
p200
sg5
I0
sg6
I0
sg7
I0
sg8
S'2008-09'
p201
sg10
I0
sg11
I0
sg12
I6
sg13
I0
sg14
g27
sg16
I0
sg17
I0
sg18
I0
sg19
I2
sg20
g21
sg22
I5
sg23
I1
sa(dp202
g2
I0
sg3
S'BOS'
p203
sg5
I0
sg6
I0
sg7
I0
sg8
S'2009-10'
p204
sg10
I0
sg11
I0
sg12
I4
sg13
I0
sg14
g15
sg16
I0
sg17
I0
sg18
I0
sg19
I2
sg20
g21
sg22
I5
sg23
I1
sa(dp205
g2
I0
sg3
S'BOS'
p206
sg5
I0
sg6
I0
sg7
I0
sg8
S'2009-10'
p207
sg10
I0
sg11
I0
sg12
I5
sg13
I0
sg14
g27
sg16
I0
sg17
I0
sg18
I0
sg19
I2
sg20
g21
sg22
I4
sg23
I1
sa(dp208
g2
I0
sg3
S'BOS'
p209
sg5
I0
sg6
I0
sg7
I0
sg8
S'2009-10'
p210
sg10
I0
sg11
I0
sg12
I3
sg13
I0
sg14
g15
sg16
I0
sg17
I0
sg18
I1
sg19
I2
sg20
g21
sg22
I4
sg23
I1
sa(dp211
g2
I0
sg3
S'BOS'
p212
sg5
I0
sg6
I0
sg7
I1
sg8
S'2009-10'
p213
sg10
I1
sg11
I0
sg12
I2
sg13
I0
sg14
g15
sg16
I0
sg17
I0
sg18
I0
sg19
I0
sg20
g21
sg22
I4
sg23
I1
sa(dp214
g2
I0
sg3
S'BOS'
p215
sg5
I0
sg6
I0
sg7
I0
sg8
S'2009-10'
p216
sg10
I0
sg11
I0
sg12
I7
sg13
I0
sg14
g27
sg16
I0
sg17
I0
sg18
I0
sg19
I5
sg20
g21
sg22
I3
sg23
I0
sa(dp217
g2
I0
sg3
S'BOS'
p218
sg5
I0
sg6
I0
sg7
I0
sg8
S'2009-10'
p219
sg10
I0
sg11
I0
sg12
I3
sg13
I0
sg14
g27
sg16
I0
sg17
I0
sg18
I0
sg19
I1
sg20
g21
sg22
I5
sg23
I2
sa(dp220
g2
I0
sg3
S'CHI'
p221
sg5
I0
sg6
I0
sg7
I0
sg8
S'2009-10'
p222
sg10
I0
sg11
I0
sg12
I4
sg13
I0
sg14
g27
sg16
I0
sg17
I0
sg18
I0
sg19
I4
sg20
g21
sg22
I4
sg23
I2
sa(dp223
g2
I0
sg3
S'CHI'
p224
sg5
I0
sg6
I0
sg7
I0
sg8
S'2009-10'
p225
sg10
I0
sg11
I0
sg12
I4
sg13
I0
sg14
g15
sg16
I0
sg17
I1
sg18
I0
sg19
I0
sg20
g21
sg22
I5
sg23
I0
sa(dp226
g2
I0
sg3
S'CHI'
p227
sg5
I0
sg6
I0
sg7
I0
sg8
S'2009-10'
p228
sg10
I0
sg11
I0
sg12
I1
sg13
I1
sg14
g15
sg16
I0
sg17
I0
sg18
I0
sg19
I2
sg20
g21
sg22
I5
sg23
I4
sa(dp229
g2
I0
sg3
S'CHI'
p230
sg5
I0
sg6
I0
sg7
I0
sg8
S'2009-10'
p231
sg10
I0
sg11
I0
sg12
I3
sg13
I0
sg14
g27
sg16
I0
sg17
I0
sg18
I0
sg19
I0
sg20
g21
sg22
I3
sg23
I0
sa(dp232
g2
I0
sg3
S'CHI'
p233
sg5
I0
sg6
I0
sg7
I0
sg8
S'2009-10'
p234
sg10
I0
sg11
I0
sg12
I2
sg13
I0
sg14
g27
sg16
I0
sg17
I0
sg18
I0
sg19
I1
sg20
g21
sg22
I4
sg23
I0
sa(dp235
g2
I0
sg3
S'DAL'
p236
sg5
I0
sg6
I0
sg7
I0
sg8
S'2010-11'
p237
sg10
I0
sg11
I0
sg12
I1
sg13
I0
sg14
g27
sg16
I0
sg17
I0
sg18
I0
sg19
I2
sg20
g21
sg22
I0
sg23
I1
sa(dp238
g2
I0
sg3
S'DAL'
p239
sg5
I0
sg6
I0
sg7
I0
sg8
S'2010-11'
p240
sg10
I0
sg11
I0
sg12
I0
sg13
I0
sg14
g15
sg16
I0
sg17
I0
sg18
I0
sg19
I0
sg20
g21
sg22
I1
sg23
I1
sa(dp241
g2
I0
sg3
S'DAL'
p242
sg5
I0
sg6
I0
sg7
I0
sg8
S'2010-11'
p243
sg10
I0
sg11
I0
sg12
I1
sg13
I0
sg14
g15
sg16
I0
sg17
I0
sg18
I0
sg19
I1
sg20
g21
sg22
I1
sg23
I1
sa(dp244
g2
I0
sg3
S'DAL'
p245
sg5
I0
sg6
I0
sg7
I0
sg8
S'2010-11'
p246
sg10
I0
sg11
I0
sg12
I2
sg13
I0
sg14
g15
sg16
I0
sg17
I0
sg18
I0
sg19
I0
sg20
g21
sg22
I2
sg23
I0
sa(dp247
g2
I0
sg3
S'DAL'
p248
sg5
I0
sg6
I0
sg7
I0
sg8
S'2010-11'
p249
sg10
I0
sg11
I0
sg12
I1
sg13
I0
sg14
g27
sg16
I0
sg17
I1
sg18
I0
sg19
I1
sg20
g21
sg22
I1
sg23
I0
sa(dp250
g2
I0
sg3
S'DAL'
p251
sg5
I0
sg6
I0
sg7
I0
sg8
S'2010-11'
p252
sg10
I0
sg11
I0
sg12
I0
sg13
I0
sg14
g27
sg16
I0
sg17
I0
sg18
I0
sg19
I0
sg20
g21
sg22
I2
sg23
I0
sa(dp253
g2
I0
sg3
S'CHI'
p254
sg5
I0
sg6
I0
sg7
I1
sg8
S'2010-11'
p255
sg10
I1
sg11
I0
sg12
I2
sg13
I0
sg14
g15
sg16
I0
sg17
I0
sg18
I1
sg19
I0
sg20
g21
sg22
I4
sg23
I2
sa(dp256
g2
I0
sg3
S'CHI'
p257
sg5
I0
sg6
I0
sg7
I0
sg8
S'2010-11'
p258
sg10
I0
sg11
I0
sg12
I6
sg13
I0
sg14
g27
sg16
I0
sg17
I0
sg18
I0
sg19
I0
sg20
g21
sg22
I7
sg23
I0
sa(dp259
g2
I0
sg3
S'CHI'
p260
sg5
I0
sg6
I0
sg7
I0
sg8
S'2010-11'
p261
sg10
I0
sg11
I0
sg12
I3
sg13
I1
sg14
g27
sg16
I0
sg17
I0
sg18
I0
sg19
I0
sg20
g21
sg22
I5
sg23
I0
sa(dp262
g2
I0
sg3
S'CHI'
p263
sg5
I0
sg6
I0
sg7
I0
sg8
S'2010-11'
p264
sg10
I0
sg11
I0
sg12
I1
sg13
I0
sg14
g15
sg16
I0
sg17
I0
sg18
I0
sg19
I2
sg20
g21
sg22
I2
sg23
I2
sa(dp265
g2
I0
sg3
S'CHI'
p266
sg5
I0
sg6
I0
sg7
I0
sg8
S'2010-11'
p267
sg10
I0
sg11
I0
sg12
I2
sg13
I0
sg14
g15
sg16
I0
sg17
I0
sg18
I0
sg19
I0
sg20
g21
sg22
I2
sg23
I0
sa(dp268
g2
I0
sg3
S'BOS'
p269
sg5
I0
sg6
I0
sg7
I0
sg8
S'2010-11'
p270
sg10
I0
sg11
I0
sg12
I4
sg13
I0
sg14
g27
sg16
I0
sg17
I0
sg18
I0
sg19
I3
sg20
g21
sg22
I2
sg23
I0
sa(dp271
g2
I0
sg3
S'BOS'
p272
sg5
I0
sg6
I0
sg7
I0
sg8
S'2010-11'
p273
sg10
I1
sg11
I0
sg12
I4
sg13
I0
sg14
g15
sg16
I0
sg17
I0
sg18
I0
sg19
I0
sg20
g21
sg22
I4
sg23
I0
sa(dp274
g2
I0
sg3
S'BOS'
p275
sg5
I0
sg6
I0
sg7
I0
sg8
S'2010-11'
p276
sg10
I0
sg11
I0
sg12
I1
sg13
I0
sg14
g15
sg16
I0
sg17
I0
sg18
I0
sg19
I2
sg20
g21
sg22
I2
sg23
I2
sa(dp277
g2
I0
sg3
S'BOS'
p278
sg5
I0
sg6
I0
sg7
I0
sg8
S'2010-11'
p279
sg10
I0
sg11
I0
sg12
I2
sg13
I0
sg14
g27
sg16
I0
sg17
I1
sg18
I0
sg19
I2
sg20
g21
sg22
I3
sg23
I0
sa(dp280
g2
I0
sg3
S'BOS'
p281
sg5
I0
sg6
I0
sg7
I0
sg8
S'2010-11'
p282
sg10
I0
sg11
I0
sg12
I3
sg13
I0
sg14
g27
sg16
I0
sg17
I0
sg18
I0
sg19
I3
sg20
g21
sg22
I2
sg23
I1
sa(dp283
g2
I0
sg3
S'PHI'
p284
sg5
I0
sg6
I0
sg7
I0
sg8
S'2010-11'
p285
sg10
I0
sg11
I0
sg12
I1
sg13
I0
sg14
g27
sg16
I0
sg17
I0
sg18
I1
sg19
I0
sg20
g21
sg22
I2
sg23
I1
sa(dp286
g2
I0
sg3
S'PHI'
p287
sg5
I0
sg6
I0
sg7
I0
sg8
S'2010-11'
p288
sg10
I0
sg11
I0
sg12
I2
sg13
I0
sg14
g15
sg16
I0
sg17
I0
sg18
I0
sg19
I0
sg20
g21
sg22
I7
sg23
I2
sa(dp289
g2
I0
sg3
S'PHI'
p290
sg5
I0
sg6
I0
sg7
I0
sg8
S'2010-11'
p291
sg10
I0
sg11
I0
sg12
I3
sg13
I0
sg14
g15
sg16
I0
sg17
I0
sg18
I1
sg19
I2
sg20
g21
sg22
I3
sg23
I1
sa(dp292
g2
I0
sg3
S'PHI'
p293
sg5
I0
sg6
I0
sg7
I0
sg8
S'2010-11'
p294
sg10
I0
sg11
I0
sg12
I3
sg13
I0
sg14
g27
sg16
I0
sg17
I0
sg18
I0
sg19
I1
sg20
g21
sg22
I5
sg23
I1
sa(dp295
g2
I0
sg3
S'PHI'
p296
sg5
I0
sg6
I0
sg7
I0
sg8
S'2010-11'
p297
sg10
I0
sg11
I0
sg12
I5
sg13
I0
sg14
g27
sg16
I0
sg17
I0
sg18
I1
sg19
I0
sg20
g21
sg22
I7
sg23
I1
sa(dp298
g2
I0
sg3
S'OKC'
p299
sg5
I0
sg6
I0
sg7
I1
sg8
S'2011-12'
p300
sg10
I1
sg11
I0
sg12
I2
sg13
I0
sg14
g27
sg16
I0
sg17
I0
sg18
I0
sg19
I1
sg20
g21
sg22
I4
sg23
I0
sa(dp301
g2
I0
sg3
S'OKC'
p302
sg5
I0
sg6
I0
sg7
I0
sg8
S'2011-12'
p303
sg10
I0
sg11
I0
sg12
I2
sg13
I0
sg14
g27
sg16
I0
sg17
I0
sg18
I0
sg19
I1
sg20
g21
sg22
I3
sg23
I2
sa(dp304
g2
I0
sg3
S'OKC'
p305
sg5
I0
sg6
I0
sg7
I0
sg8
S'2011-12'
p306
sg10
I0
sg11
I0
sg12
I3
sg13
I0
sg14
g27
sg16
I0
sg17
I0
sg18
I0
sg19
I2
sg20
g21
sg22
I3
sg23
I0
sa(dp307
g2
I0
sg3
S'OKC'
p308
sg5
I0
sg6
I0
sg7
I0
sg8
S'2011-12'
p309
sg10
I0
sg11
I0
sg12
I6
sg13
I0
sg14
g15
sg16
I0
sg17
I0
sg18
I0
sg19
I0
sg20
g21
sg22
I6
sg23
I0
sa(dp310
g2
I0
sg3
S'OKC'
p311
sg5
I0
sg6
I0
sg7
I0
sg8
S'2011-12'
p312
sg10
I0
sg11
I0
sg12
I3
sg13
I0
sg14
g15
sg16
I0
sg17
I0
sg18
I0
sg19
I2
sg20
g21
sg22
I4
sg23
I0
sa(dp313
g2
I0
sg3
S'BOS'
p314
sg5
I0
sg6
I0
sg7
I0
sg8
S'2011-12'
p315
sg10
I0
sg11
I0
sg12
I5
sg13
I0
sg14
g27
sg16
I0
sg17
I0
sg18
I0
sg19
I2
sg20
g21
sg22
I7
sg23
I3
sa(dp316
g2
I0
sg3
S'BOS'
p317
sg5
I0
sg6
I0
sg7
I0
sg8
S'2011-12'
p318
sg10
I0
sg11
I0
sg12
I3
sg13
I0
sg14
g15
sg16
I0
sg17
I0
sg18
I0
sg19
I3
sg20
g21
sg22
I2
sg23
I1
sa(dp319
g2
I0
sg3
S'BOS'
p320
sg5
I0
sg6
I0
sg7
I0
sg8
S'2011-12'
p321
sg10
I0
sg11
I0
sg12
I4
sg13
I0
sg14
g27
sg16
I0
sg17
I0
sg18
I0
sg19
I2
sg20
g21
sg22
I2
sg23
I0
sa(dp322
g2
I0
sg3
S'BOS'
p323
sg5
I0
sg6
I0
sg7
I0
sg8
S'2011-12'
p324
sg10
I0
sg11
I0
sg12
I3
sg13
I0
sg14
g15
sg16
I0
sg17
I0
sg18
I0
sg19
I4
sg20
g21
sg22
I1
sg23
I0
sa(dp325
g2
I0
sg3
S'BOS'
p326
sg5
I0
sg6
I0
sg7
I0
sg8
S'2011-12'
p327
sg10
I0
sg11
I0
sg12
I1
sg13
I0
sg14
g15
sg16
I0
sg17
I0
sg18
I0
sg19
I4
sg20
g21
sg22
I0
sg23
I0
sa(dp328
g2
I0
sg3
S'BOS'
p329
sg5
I0
sg6
I0
sg7
I0
sg8
S'2011-12'
p330
sg10
I0
sg11
I0
sg12
I9
sg13
I0
sg14
g27
sg16
I2
sg17
I0
sg18
I0
sg19
I2
sg20
g21
sg22
I9
sg23
I2
sa(dp331
g2
I0
sg3
S'BOS'
p332
sg5
I0
sg6
I0
sg7
I0
sg8
S'2011-12'
p333
sg10
I0
sg11
I0
sg12
I3
sg13
I0
sg14
g27
sg16
I0
sg17
I1
sg18
I0
sg19
I1
sg20
g21
sg22
I3
sg23
I1
sa(dp334
g2
I0
sg3
S'IND'
p335
sg5
I0
sg6
I0
sg7
I0
sg8
S'2011-12'
p336
sg10
I0
sg11
I0
sg12
I2
sg13
I0
sg14
g15
sg16
I0
sg17
I0
sg18
I1
sg19
I1
sg20
g21
sg22
I1
sg23
I0
sa(dp337
g2
I0
sg3
S'IND'
p338
sg5
I0
sg6
I0
sg7
I0
sg8
S'2011-12'
p339
sg10
I0
sg11
I0
sg12
I2
sg13
I0
sg14
g27
sg16
I0
sg17
I0
sg18
I0
sg19
I0
sg20
g21
sg22
I2
sg23
I0
sa(dp340
g2
I0
sg3
S'IND'
p341
sg5
I0
sg6
I0
sg7
I0
sg8
S'2011-12'
p342
sg10
I0
sg11
I0
sg12
I6
sg13
I0
sg14
g15
sg16
I0
sg17
I0
sg18
I0
sg19
I3
sg20
g21
sg22
I6
sg23
I1
sa(dp343
g2
I0
sg3
S'IND'
p344
sg5
I0
sg6
I0
sg7
I0
sg8
S'2011-12'
p345
sg10
I0
sg11
I0
sg12
I0
sg13
I0
sg14
g15
sg16
I0
sg17
I1
sg18
I0
sg19
I0
sg20
g21
sg22
I1
sg23
I1
sa(dp346
g2
I0
sg3
S'IND'
p347
sg5
I0
sg6
I0
sg7
I0
sg8
S'2011-12'
p348
sg10
I0
sg11
I0
sg12
I3
sg13
I0
sg14
g27
sg16
I0
sg17
I0
sg18
I0
sg19
I2
sg20
g21
sg22
I5
sg23
I3
sa(dp349
g2
I0
sg3
S'IND'
p350
sg5
I0
sg6
I0
sg7
I0
sg8
S'2011-12'
p351
sg10
I0
sg11
I0
sg12
I4
sg13
I0
sg14
g27
sg16
I0
sg17
I0
sg18
I0
sg19
I1
sg20
g21
sg22
I4
sg23
I1
sa(dp352
g2
I0
sg3
S'NYK'
p353
sg5
I0
sg6
I0
sg7
I0
sg8
S'2011-12'
p354
sg10
I0
sg11
I0
sg12
I6
sg13
I0
sg14
g27
sg16
I0
sg17
I0
sg18
I3
sg19
I2
sg20
g21
sg22
I4
sg23
I0
sa(dp355
g2
I0
sg3
S'NYK'
p356
sg5
I0
sg6
I0
sg7
I0
sg8
S'2011-12'
p357
sg10
I0
sg11
I0
sg12
I3
sg13
I0
sg14
g15
sg16
I0
sg17
I0
sg18
I1
sg19
I1
sg20
g21
sg22
I3
sg23
I0
sa(dp358
g2
I0
sg3
S'NYK'
p359
sg5
I0
sg6
I0
sg7
I0
sg8
S'2011-12'
p360
sg10
I0
sg11
I0
sg12
I5
sg13
I0
sg14
g15
sg16
I0
sg17
I0
sg18
I1
sg19
I1
sg20
g21
sg22
I6
sg23
I0
sa(dp361
g2
I0
sg3
S'NYK'
p362
sg5
I0
sg6
I0
sg7
I0
sg8
S'2011-12'
p363
sg10
I0
sg11
I0
sg12
I0
sg13
I0
sg14
g27
sg16
I0
sg17
I0
sg18
I0
sg19
I3
sg20
g21
sg22
I3
sg23
I1
sa(dp364
g2
I0
sg3
S'NYK'
p365
sg5
I0
sg6
I0
sg7
I1
sg8
S'2011-12'
p366
sg10
I1
sg11
I0
sg12
I4
sg13
I0
sg14
g27
sg16
I0
sg17
I0
sg18
I0
sg19
I2
sg20
g21
sg22
I5
sg23
I1
sa(dp367
g2
I0
sg3
S'SAS'
p368
sg5
I0
sg6
I0
sg7
I0
sg8
S'2012-13'
p369
sg10
I0
sg11
I0
sg12
I3
sg13
I0
sg14
g27
sg16
I0
sg17
I0
sg18
I0
sg19
I0
sg20
g21
sg22
I5
sg23
I0
sa(dp370
g2
I0
sg3
S'SAS'
p371
sg5
I0
sg6
I0
sg7
I0
sg8
S'2012-13'
p372
sg10
I0
sg11
I0
sg12
I6
sg13
I0
sg14
g27
sg16
I0
sg17
I0
sg18
I0
sg19
I3
sg20
g21
sg22
I3
sg23
I0
sa(dp373
g2
I0
sg3
S'SAS'
p374
sg5
I0
sg6
I0
sg7
I0
sg8
S'2012-13'
p375
sg10
I0
sg11
I0
sg12
I4
sg13
I0
sg14
g15
sg16
I0
sg17
I0
sg18
I0
sg19
I2
sg20
g21
sg22
I3
sg23
I0
sa(dp376
g2
I0
sg3
S'SAS'
p377
sg5
I0
sg6
I0
sg7
I0
sg8
S'2012-13'
p378
sg10
I0
sg11
I0
sg12
I2
sg13
I0
sg14
g15
sg16
I0
sg17
I0
sg18
I0
sg19
I2
sg20
g21
sg22
I0
sg23
I0
sa(dp379
g2
I0
sg3
S'SAS'
p380
sg5
I0
sg6
I0
sg7
I0
sg8
S'2012-13'
p381
sg10
I0
sg11
I0
sg12
I0
sg13
I0
sg14
g15
sg16
I0
sg17
I0
sg18
I0
sg19
I0
sg20
g21
sg22
I0
sg23
I0
sa(dp382
g2
I0
sg3
S'SAS'
p383
sg5
I0
sg6
I0
sg7
I0
sg8
S'2012-13'
p384
sg10
I0
sg11
I0
sg12
I1
sg13
I0
sg14
g27
sg16
I0
sg17
I0
sg18
I0
sg19
I0
sg20
g21
sg22
I1
sg23
I0
sa(dp385
g2
I0
sg3
S'SAS'
p386
sg5
I0
sg6
I0
sg7
I0
sg8
S'2012-13'
p387
sg10
I0
sg11
I0
sg12
I2
sg13
I0
sg14
g27
sg16
I0
sg17
I0
sg18
I0
sg19
I1
sg20
g21
sg22
I1
sg23
I0
sa(dp388
g2
I0
sg3
S'IND'
p389
sg5
I0
sg6
I0
sg7
I0
sg8
S'2012-13'
p390
sg10
I0
sg11
I0
sg12
I7
sg13
I0
sg14
g27
sg16
I0
sg17
I0
sg18
I0
sg19
I0
sg20
g21
sg22
I8
sg23
I1
sa(dp391
g2
I0
sg3
S'IND'
p392
sg5
I0
sg6
I0
sg7
I0
sg8
S'2012-13'
p393
sg10
I0
sg11
I0
sg12
I3
sg13
I0
sg14
g15
sg16
I0
sg17
I0
sg18
I0
sg19
I0
sg20
g21
sg22
I4
sg23
I1
sa(dp394
g2
I0
sg3
S'IND'
p395
sg5
I0
sg6
I0
sg7
I0
sg8
S'2012-13'
p396
sg10
I0
sg11
I0
sg12
I0
sg13
I0
sg14
g27
sg16
I0
sg17
I0
sg18
I0
sg19
I1
sg20
g21
sg22
I1
sg23
I2
sa(dp397
g2
I0
sg3
S'IND'
p398
sg5
I0
sg6
I0
sg7
I0
sg8
S'2012-13'
p399
sg10
I0
sg11
I0
sg12
I2
sg13
I0
sg14
g15
sg16
I0
sg17
I0
sg18
I0
sg19
I1
sg20
g21
sg22
I2
sg23
I1
sa(dp400
g2
I0
sg3
S'IND'
p401
sg5
I0
sg6
I0
sg7
I0
sg8
S'2012-13'
p402
sg10
I0
sg11
I0
sg12
I3
sg13
I0
sg14
g15
sg16
I0
sg17
I0
sg18
I0
sg19
I0
sg20
g21
sg22
I3
sg23
I0
sa(dp403
g2
I0
sg3
S'IND'
p404
sg5
I0
sg6
I0
sg7
I0
sg8
S'2012-13'
p405
sg10
I0
sg11
I0
sg12
I3
sg13
I0
sg14
g27
sg16
I0
sg17
I0
sg18
I0
sg19
I2
sg20
g21
sg22
I2
sg23
I0
sa(dp406
g2
I0
sg3
S'IND'
p407
sg5
I0
sg6
I0
sg7
I0
sg8
S'2012-13'
p408
sg10
I0
sg11
I0
sg12
I1
sg13
I0
sg14
g27
sg16
I0
sg17
I1
sg18
I0
sg19
I1
sg20
g21
sg22
I3
sg23
I1
sa(dp409
g2
I0
sg3
S'CHI'
p410
sg5
I0
sg6
I0
sg7
I0
sg8
S'2012-13'
p411
sg10
I0
sg11
I0
sg12
I6
sg13
I0
sg14
g27
sg16
I0
sg17
I1
sg18
I1
sg19
I2
sg20
g21
sg22
I5
sg23
I0
sa(dp412
g2
I0
sg3
S'CHI'
p413
sg5
I0
sg6
I0
sg7
I0
sg8
S'2012-13'
p414
sg10
I0
sg11
I0
sg12
I4
sg13
I0
sg14
g15
sg16
I0
sg17
I0
sg18
I0
sg19
I1
sg20
g21
sg22
I4
sg23
I0
sa(dp415
g2
I0
sg3
S'CHI'
p416
sg5
I0
sg6
I0
sg7
I0
sg8
S'2012-13'
p417
sg10
I0
sg11
I0
sg12
I5
sg13
I0
sg14
g15
sg16
I0
sg17
I0
sg18
I0
sg19
I0
sg20
g21
sg22
I6
sg23
I0
sa(dp418
g2
I0
sg3
S'CHI'
p419
sg5
I0
sg6
I0
sg7
I0
sg8
S'2012-13'
p420
sg10
I0
sg11
I0
sg12
I3
sg13
I0
sg14
g27
sg16
I0
sg17
I0
sg18
I0
sg19
I3
sg20
g21
sg22
I1
sg23
I1
sa(dp421
g2
I0
sg3
S'CHI'
p422
sg5
I0
sg6
I0
sg7
I0
sg8
S'2012-13'
p423
sg10
I0
sg11
I0
sg12
I2
sg13
I0
sg14
g27
sg16
I0
sg17
I0
sg18
I0
sg19
I1
sg20
g21
sg22
I5
sg23
I1
sa(dp424
g2
I0
sg3
S'MIL'
p425
sg5
I0
sg6
I0
sg7
I0
sg8
S'2012-13'
p426
sg10
I0
sg11
I0
sg12
I3
sg13
I0
sg14
g15
sg16
I0
sg17
I0
sg18
I0
sg19
I3
sg20
g21
sg22
I1
sg23
I0
sa(dp427
g2
I0
sg3
S'MIL'
p428
sg5
I0
sg6
I0
sg7
I0
sg8
S'2012-13'
p429
sg10
I0
sg11
I0
sg12
I1
sg13
I0
sg14
g15
sg16
I0
sg17
I0
sg18
I0
sg19
I2
sg20
g21
sg22
I1
sg23
I0
sa(dp430
g2
I0
sg3
S'MIL'
p431
sg5
I0
sg6
I0
sg7
I0
sg8
S'2012-13'
p432
sg10
I0
sg11
I0
sg12
I4
sg13
I0
sg14
g27
sg16
I0
sg17
I0
sg18
I0
sg19
I1
sg20
g21
sg22
I3
sg23
I0
sa(dp433
g2
I0
sg3
S'MIL'
p434
sg5
I0
sg6
I0
sg7
I0
sg8
S'2012-13'
p435
sg10
I0
sg11
I0
sg12
I3
sg13
I0
sg14
g27
sg16
I0
sg17
I0
sg18
I0
sg19
I2
sg20
g21
sg22
I5
sg23
I1
sa(dp436
g2
I0
sg3
S'SAS'
p437
sg5
I0
sg6
I0
sg7
I0
sg8
S'2013-14'
p438
sg10
I0
sg11
I0
sg12
I4
sg13
I0
sg14
g15
sg16
I0
sg17
I0
sg18
I0
sg19
I1
sg20
g21
sg22
I4
sg23
I0
sa(dp439
g2
I0
sg3
S'SAS'
p440
sg5
I0
sg6
I0
sg7
I0
sg8
S'2013-14'
p441
sg10
I0
sg11
I0
sg12
I1
sg13
I0
sg14
g27
sg16
I0
sg17
I0
sg18
I0
sg19
I0
sg20
g21
sg22
I3
sg23
I2
sa(dp442
g2
I0
sg3
S'SAS'
p443
sg5
I0
sg6
I0
sg7
I0
sg8
S'2013-14'
p444
sg10
I0
sg11
I0
sg12
I1
sg13
I0
sg14
g27
sg16
I0
sg17
I0
sg18
I0
sg19
I1
sg20
g21
sg22
I1
sg23
I0
sa(dp445
g2
I0
sg3
S'SAS'
p446
sg5
I0
sg6
I0
sg7
I0
sg8
S'2013-14'
p447
sg10
I0
sg11
I0
sg12
I1
sg13
I0
sg14
g15
sg16
I0
sg17
I0
sg18
I1
sg19
I0
sg20
g21
sg22
I2
sg23
I1
sa(dp448
g2
I0
sg3
S'SAS'
p449
sg5
I0
sg6
I0
sg7
I0
sg8
S'2013-14'
p450
sg10
I0
sg11
I0
sg12
I2
sg13
I0
sg14
g15
sg16
I0
sg17
I0
sg18
I0
sg19
I0
sg20
g21
sg22
I3
sg23
I1
sa(dp451
g2
I0
sg3
S'IND'
p452
sg5
I0
sg6
I0
sg7
I0
sg8
S'2013-14'
p453
sg10
I0
sg11
I0
sg12
I4
sg13
I0
sg14
g27
sg16
I0
sg17
I0
sg18
I0
sg19
I0
sg20
g21
sg22
I5
sg23
I0
sa(dp454
g2
I0
sg3
S'IND'
p455
sg5
I0
sg6
I0
sg7
I0
sg8
S'2013-14'
p456
sg10
I0
sg11
I0
sg12
I1
sg13
I1
sg14
g15
sg16
I0
sg17
I0
sg18
I0
sg19
I1
sg20
g21
sg22
I0
sg23
I0
sa(dp457
g2
I0
sg3
S'IND'
p458
sg5
I0
sg6
I0
sg7
I0
sg8
S'2013-14'
p459
sg10
I0
sg11
I0
sg12
I1
sg13
I0
sg14
g27
sg16
I0
sg17
I0
sg18
I0
sg19
I0
sg20
g21
sg22
I3
sg23
I0
sa(dp460
g2
I0
sg3
S'IND'
p461
sg5
I0
sg6
I0
sg7
I0
sg8
S'2013-14'
p462
sg10
I0
sg11
I0
sg12
I4
sg13
I0
sg14
g27
sg16
I0
sg17
I0
sg18
I0
sg19
I2
sg20
g21
sg22
I3
sg23
I0
sa(dp463
g2
I0
sg3
S'IND'
p464
sg5
I0
sg6
I0
sg7
I0
sg8
S'2013-14'
p465
sg10
I0
sg11
I0
sg12
I2
sg13
I0
sg14
g15
sg16
I0
sg17
I0
sg18
I0
sg19
I2
sg20
g21
sg22
I1
sg23
I1
sa(dp466
g2
I0
sg3
S'IND'
p467
sg5
I0
sg6
I0
sg7
I0
sg8
S'2013-14'
p468
sg10
I0
sg11
I0
sg12
I0
sg13
I0
sg14
g15
sg16
I0
sg17
I0
sg18
I0
sg19
I0
sg20
g21
sg22
I2
sg23
I0
sa(dp469
g2
I0
sg3
S'BKN'
p470
sg5
I0
sg6
I0
sg7
I0
sg8
S'2013-14'
p471
sg10
I0
sg11
I0
sg12
I7
sg13
I0
sg14
g27
sg16
I0
sg17
I0
sg18
I0
sg19
I1
sg20
g21
sg22
I8
sg23
I1
sa(dp472
g2
I0
sg3
S'BKN'
p473
sg5
I0
sg6
I0
sg7
I0
sg8
S'2013-14'
p474
sg10
I0
sg11
I2
sg12
I6
sg13
I0
sg14
g15
sg16
I0
sg17
I0
sg18
I0
sg19
I3
sg20
g21
sg22
I6
sg23
I2
sa(dp475
g2
I0
sg3
S'BKN'
p476
sg5
I0
sg6
I0
sg7
I0
sg8
S'2013-14'
p477
sg10
I1
sg11
I0
sg12
I4
sg13
I0
sg14
g15
sg16
I0
sg17
I0
sg18
I0
sg19
I1
sg20
g21
sg22
I4
sg23
I0
sa(dp478
g2
I0
sg3
S'BKN'
p479
sg5
I0
sg6
I0
sg7
I0
sg8
S'2013-14'
p480
sg10
I0
sg11
I0
sg12
I2
sg13
I0
sg14
g27
sg16
I0
sg17
I0
sg18
I0
sg19
I1
sg20
g21
sg22
I2
sg23
I1
sa(dp481
g2
I0
sg3
S'BKN'
p482
sg5
I0
sg6
I0
sg7
I0
sg8
S'2013-14'
p483
sg10
I0
sg11
I0
sg12
I1
sg13
I0
sg14
g27
sg16
I0
sg17
I0
sg18
I0
sg19
I0
sg20
g21
sg22
I1
sg23
I0
sa(dp484
g2
I0
sg3
S'CHA'
p485
sg5
I1
sg6
I0
sg7
I0
sg8
S'2013-14'
p486
sg10
I0
sg11
I0
sg12
I5
sg13
I1
sg14
g15
sg16
I0
sg17
I0
sg18
I0
sg19
I1
sg20
g21
sg22
I4
sg23
I0
sa(dp487
g2
I0
sg3
S'CHA'
p488
sg5
I0
sg6
I0
sg7
I0
sg8
S'2013-14'
p489
sg10
I0
sg11
I0
sg12
I4
sg13
I1
sg14
g15
sg16
I0
sg17
I0
sg18
I0
sg19
I1
sg20
g21
sg22
I4
sg23
I0
sa(dp490
g2
I0
sg3
S'CHA'
p491
sg5
I0
sg6
I0
sg7
I0
sg8
S'2013-14'
p492
sg10
I0
sg11
I0
sg12
I5
sg13
I0
sg14
g27
sg16
I0
sg17
I0
sg18
I0
sg19
I3
sg20
g21
sg22
I4
sg23
I0
sa(dp493
g2
I0
sg3
S'CHA'
p494
sg5
I0
sg6
I0
sg7
I0
sg8
S'2013-14'
p495
sg10
I0
sg11
I0
sg12
I4
sg13
I0
sg14
g27
sg16
I0
sg17
I0
sg18
I0
sg19
I2
sg20
g21
sg22
I3
sg23
I1
sa(dp496
g2
I0
sg3
S'GSW'
p497
sg5
I0
sg6
I0
sg7
I0
sg8
S'2014-15'
p498
sg10
I0
sg11
I0
sg12
I2
sg13
I0
sg14
g27
sg16
I0
sg17
I0
sg18
I0
sg19
I2
sg20
g21
sg22
I2
sg23
I2
sa(dp499
g2
I0
sg3
S'GSW'
p500
sg5
I0
sg6
I0
sg7
I0
sg8
S'2014-15'
p501
sg10
I0
sg11
I0
sg12
I1
sg13
I0
sg14
g15
sg16
I0
sg17
I0
sg18
I1
sg19
I0
sg20
g21
sg22
I5
sg23
I2
sa(dp502
g2
I0
sg3
S'GSW'
p503
sg5
I0
sg6
I0
sg7
I0
sg8
S'2014-15'
p504
sg10
I0
sg11
I0
sg12
I3
sg13
I0
sg14
g27
sg16
I0
sg17
I0
sg18
I0
sg19
I3
sg20
g21
sg22
I2
sg23
I2
sa(dp505
g2
I0
sg3
S'GSW'
p506
sg5
I0
sg6
I0
sg7
I0
sg8
S'2014-15'
p507
sg10
I0
sg11
I0
sg12
I5
sg13
I0
sg14
g27
sg16
I0
sg17
I0
sg18
I0
sg19
I1
sg20
g21
sg22
I5
sg23
I1
sa(dp508
g2
I0
sg3
S'GSW'
p509
sg5
I0
sg6
I0
sg7
I0
sg8
S'2014-15'
p510
sg10
I0
sg11
I0
sg12
I8
sg13
I0
sg14
g15
sg16
I0
sg17
I0
sg18
I0
sg19
I3
sg20
g21
sg22
I6
sg23
I1
sa(dp511
g2
I0
sg3
S'GSW'
p512
sg5
I0
sg6
I0
sg7
I0
sg8
S'2014-15'
p513
sg10
I0
sg11
I0
sg12
I3
sg13
I0
sg14
g15
sg16
I0
sg17
I0
sg18
I0
sg19
I2
sg20
g21
sg22
I3
sg23
I2
sa(dp514
g2
I0
sg3
S'ATL'
p515
sg5
I0
sg6
I0
sg7
I0
sg8
S'2014-15'
p516
sg10
I0
sg11
I0
sg12
I1
sg13
I0
sg14
g27
sg16
I0
sg17
I0
sg18
I0
sg19
I2
sg20
g21
sg22
I0
sg23
I1
sa(dp517
g2
I0
sg3
S'ATL'
p518
sg5
I0
sg6
I0
sg7
I0
sg8
S'2014-15'
p519
sg10
I0
sg11
I0
sg12
I5
sg13
I0
sg14
g27
sg16
I0
sg17
I0
sg18
I0
sg19
I2
sg20
g21
sg22
I3
sg23
I0
sa(dp520
g2
I0
sg3
S'ATL'
p521
sg5
I0
sg6
I0
sg7
I1
sg8
S'2014-15'
p522
sg10
I1
sg11
I0
sg12
I3
sg13
I0
sg14
g15
sg16
I0
sg17
I0
sg18
I0
sg19
I2
sg20
g21
sg22
I3
sg23
I1
sa(dp523
g2
I0
sg3
S'ATL'
p524
sg5
I0
sg6
I0
sg7
I0
sg8
S'2014-15'
p525
sg10
I0
sg11
I0
sg12
I3
sg13
I0
sg14
g15
sg16
I0
sg17
I0
sg18
I1
sg19
I1
sg20
g21
sg22
I3
sg23
I0
sa(dp526
g2
I0
sg3
S'CHI'
p527
sg5
I0
sg6
I0
sg7
I0
sg8
S'2014-15'
p528
sg10
I0
sg11
I0
sg12
I1
sg13
I0
sg14
g15
sg16
I0
sg17
I0
sg18
I0
sg19
I1
sg20
g21
sg22
I0
sg23
I0
sa(dp529
g2
I0
sg3
S'CHI'
p530
sg5
I0
sg6
I0
sg7
I0
sg8
S'2014-15'
p531
sg10
I0
sg11
I0
sg12
I4
sg13
I0
sg14
g27
sg16
I0
sg17
I0
sg18
I0
sg19
I2
sg20
g21
sg22
I5
sg23
I1
sa(dp532
g2
I0
sg3
S'CHI'
p533
sg5
I0
sg6
I0
sg7
I0
sg8
S'2014-15'
p534
sg10
I0
sg11
I0
sg12
I2
sg13
I0
sg14
g15
sg16
I0
sg17
I0
sg18
I0
sg19
I0
sg20
g21
sg22
I2
sg23
I0
sa(dp535
g2
I0
sg3
S'CHI'
p536
sg5
I0
sg6
I0
sg7
I0
sg8
S'2014-15'
p537
sg10
I0
sg11
I0
sg12
I3
sg13
I0
sg14
g15
sg16
I0
sg17
I0
sg18
I1
sg19
I0
sg20
g21
sg22
I6
sg23
I1
sa(dp538
g2
I0
sg3
S'CHI'
p539
sg5
I0
sg6
I0
sg7
I0
sg8
S'2014-15'
p540
sg10
I0
sg11
I0
sg12
I4
sg13
I0
sg14
g27
sg16
I0
sg17
I0
sg18
I0
sg19
I2
sg20
g21
sg22
I3
sg23
I0
sa(dp541
g2
I0
sg3
S'CHI'
p542
sg5
I0
sg6
I0
sg7
I0
sg8
S'2014-15'
p543
sg10
I0
sg11
I0
sg12
I0
sg13
I0
sg14
g27
sg16
I0
sg17
I0
sg18
I0
sg19
I0
sg20
g21
sg22
I1
sg23
I1
sa(dp544
g2
I0
sg3
S'BOS'
p545
sg5
I0
sg6
I0
sg7
I0
sg8
S'2014-15'
p546
sg10
I0
sg11
I0
sg12
I3
sg13
I0
sg14
g15
sg16
I0
sg17
I0
sg18
I0
sg19
I2
sg20
g21
sg22
I3
sg23
I2
sa(dp547
g2
I0
sg3
S'BOS'
p548
sg5
I0
sg6
I0
sg7
I1
sg8
S'2014-15'
p549
sg10
I1
sg11
I0
sg12
I1
sg13
I0
sg14
g15
sg16
I0
sg17
I0
sg18
I0
sg19
I1
sg20
g21
sg22
I1
sg23
I0
sa(dp550
g2
I0
sg3
S'BOS'
p551
sg5
I0
sg6
I0
sg7
I0
sg8
S'2014-15'
p552
sg10
I0
sg11
I0
sg12
I4
sg13
I0
sg14
g27
sg16
I0
sg17
I0
sg18
I0
sg19
I1
sg20
g21
sg22
I3
sg23
I0
sa(dp553
g2
I0
sg3
S'BOS'
p554
sg5
I0
sg6
I0
sg7
I0
sg8
S'2014-15'
p555
sg10
I0
sg11
I0
sg12
I2
sg13
I0
sg14
g27
sg16
I0
sg17
I0
sg18
I0
sg19
I1
sg20
g21
sg22
I1
sg23
I0
sa(dp556
g2
I0
sg3
S'GSW'
p557
sg5
I0
sg6
I0
sg7
I0
sg8
S'2015-16'
p558
sg10
I0
sg11
I0
sg12
I4
sg13
I1
sg14
g15
sg16
I0
sg17
I0
sg18
I0
sg19
I2
sg20
g21
sg22
I3
sg23
I0
sa(dp559
g2
I0
sg3
S'GSW'
p560
sg5
I0
sg6
I0
sg7
I0
sg8
S'2015-16'
p561
sg10
I0
sg11
I0
sg12
I3
sg13
I0
sg14
g27
sg16
I0
sg17
I0
sg18
I0
sg19
I1
sg20
g21
sg22
I3
sg23
I1
sa(dp562
g2
I0
sg3
S'GSW'
p563
sg5
I0
sg6
I0
sg7
I0
sg8
S'2015-16'
p564
sg10
I0
sg11
I0
sg12
I1
sg13
I0
sg14
g15
sg16
I0
sg17
I0
sg18
I0
sg19
I1
sg20
g21
sg22
I4
sg23
I2
sa(dp565
g2
I0
sg3
S'GSW'
p566
sg5
I0
sg6
I0
sg7
I0
sg8
S'2015-16'
p567
sg10
I0
sg11
I0
sg12
I1
sg13
I0
sg14
g27
sg16
I0
sg17
I0
sg18
I0
sg19
I1
sg20
g21
sg22
I1
sg23
I1
sa(dp568
g2
I0
sg3
S'GSW'
p569
sg5
I0
sg6
I0
sg7
I0
sg8
S'2015-16'
p570
sg10
I0
sg11
I0
sg12
I2
sg13
I0
sg14
g27
sg16
I0
sg17
I0
sg18
I0
sg19
I2
sg20
g21
sg22
I1
sg23
I0
sa(dp571
g2
I0
sg3
S'GSW'
p572
sg5
I0
sg6
I0
sg7
I0
sg8
S'2015-16'
p573
sg10
I0
sg11
I0
sg12
I2
sg13
I0
sg14
g15
sg16
I0
sg17
I0
sg18
I0
sg19
I0
sg20
g21
sg22
I2
sg23
I0
sa(dp574
g2
I0
sg3
S'GSW'
p575
sg5
I0
sg6
I0
sg7
I0
sg8
S'2015-16'
p576
sg10
I0
sg11
I0
sg12
I1
sg13
I0
sg14
g15
sg16
I0
sg17
I0
sg18
I0
sg19
I0
sg20
g21
sg22
I2
sg23
I1
sa(dp577
g2
I0
sg3
S'TOR'
p578
sg5
I0
sg6
I0
sg7
I0
sg8
S'2015-16'
p579
sg10
I0
sg11
I0
sg12
I1
sg13
I1
sg14
g15
sg16
I0
sg17
I0
sg18
I0
sg19
I1
sg20
g21
sg22
I2
sg23
I2
sa(dp580
g2
I0
sg3
S'TOR'
p581
sg5
I0
sg6
I0
sg7
I0
sg8
S'2015-16'
p582
sg10
I0
sg11
I0
sg12
I1
sg13
I0
sg14
g27
sg16
I0
sg17
I0
sg18
I0
sg19
I2
sg20
g21
sg22
I0
sg23
I0
sa(dp583
g2
I0
sg3
S'TOR'
p584
sg5
I0
sg6
I0
sg7
I0
sg8
S'2015-16'
p585
sg10
I0
sg11
I0
sg12
I3
sg13
I0
sg14
g15
sg16
I0
sg17
I0
sg18
I0
sg19
I0
sg20
g21
sg22
I3
sg23
I0
sa(dp586
g2
I0
sg3
S'TOR'
p587
sg5
I0
sg6
I0
sg7
I1
sg8
S'2015-16'
p588
sg10
I1
sg11
I0
sg12
I1
sg13
I0
sg14
g15
sg16
I0
sg17
I0
sg18
I0
sg19
I1
sg20
g21
sg22
I2
sg23
I1
sa(dp589
g2
I0
sg3
S'TOR'
p590
sg5
I0
sg6
I0
sg7
I0
sg8
S'2015-16'
p591
sg10
I0
sg11
I0
sg12
I4
sg13
I0
sg14
g27
sg16
I0
sg17
I0
sg18
I0
sg19
I4
sg20
g21
sg22
I5
sg23
I4
sa(dp592
g2
I0
sg3
S'TOR'
p593
sg5
I0
sg6
I0
sg7
I0
sg8
S'2015-16'
p594
sg10
I0
sg11
I0
sg12
I1
sg13
I0
sg14
g27
sg16
I0
sg17
I0
sg18
I0
sg19
I2
sg20
g21
sg22
I1
sg23
I0
sa(dp595
g2
I0
sg3
S'ATL'
p596
sg5
I0
sg6
I0
sg7
I0
sg8
S'2015-16'
p597
sg10
I0
sg11
I0
sg12
I0
sg13
I0
sg14
g15
sg16
I0
sg17
I0
sg18
I0
sg19
I2
sg20
g21
sg22
I0
sg23
I1
sa(dp598
g2
I0
sg3
S'ATL'
p599
sg5
I0
sg6
I0
sg7
I1
sg8
S'2015-16'
p600
sg10
I1
sg11
I0
sg12
I2
sg13
I1
sg14
g15
sg16
I0
sg17
I0
sg18
I0
sg19
I1
sg20
g21
sg22
I2
sg23
I1
sa(dp601
g2
I0
sg3
S'ATL'
p602
sg5
I0
sg6
I0
sg7
I0
sg8
S'2015-16'
p603
sg10
I0
sg11
I0
sg12
I3
sg13
I0
sg14
g27
sg16
I0
sg17
I0
sg18
I0
sg19
I3
sg20
g21
sg22
I2
sg23
I1
sa(dp604
g2
I0
sg3
S'ATL'
p605
sg5
I0
sg6
I0
sg7
I0
sg8
S'2015-16'
p606
sg10
I0
sg11
I0
sg12
I0
sg13
I0
sg14
g27
sg16
I0
sg17
I0
sg18
I0
sg19
I0
sg20
g21
sg22
I1
sg23
I0
sa(dp607
g2
I0
sg3
S'DET'
p608
sg5
I0
sg6
I0
sg7
I0
sg8
S'2015-16'
p609
sg10
I0
sg11
I0
sg12
I1
sg13
I0
sg14
g15
sg16
I0
sg17
I0
sg18
I0
sg19
I0
sg20
g21
sg22
I2
sg23
I0
sa(dp610
g2
I0
sg3
S'DET'
p611
sg5
I0
sg6
I0
sg7
I0
sg8
S'2015-16'
p612
sg10
I0
sg11
I0
sg12
I1
sg13
I0
sg14
g15
sg16
I0
sg17
I0
sg18
I0
sg19
I1
sg20
g21
sg22
I2
sg23
I1
sa(dp613
g2
I0
sg3
S'DET'
p614
sg5
I0
sg6
I0
sg7
I0
sg8
S'2015-16'
p615
sg10
I0
sg11
I0
sg12
I1
sg13
I0
sg14
g27
sg16
I0
sg17
I0
sg18
I0
sg19
I2
sg20
g21
sg22
I0
sg23
I0
sa(dp616
g2
I0
sg3
S'DET'
p617
sg5
I0
sg6
I0
sg7
I0
sg8
S'2015-16'
p618
sg10
I0
sg11
I0
sg12
I2
sg13
I0
sg14
g27
sg16
I0
sg17
I0
sg18
I0
sg19
I0
sg20
g21
sg22
I2
sg23
I0
sa.