(lp0
(dp1
S'season'
p2
S'2003-04'
p3
sS'stats'
p4
(lp5
I1
aI0
aI0
aI0
aI0
aI0
aI0
aI0
aI0
aI0
aI0
aI0
aI0
aI0
asS'opp'
p6
S'NYK'
p7
sS'seasonType'
p8
S'Regular Season'
p9
sS'location'
p10
S'away'
p11
sa(dp12
g2
S'2003-04'
p13
sg4
(lp14
I4
aI2
aI4
aI1
aI0
aI0
aI0
aI0
aI0
aI0
aI0
aI0
aI0
aI0
asg6
S'MIL'
p15
sg8
g9
sg10
S'home'
p16
sa(dp17
g2
S'2003-04'
p18
sg4
(lp19
I1
aI2
aI1
aI1
aI0
aI0
aI0
aI0
aI0
aI0
aI0
aI0
aI0
aI0
asg6
S'MIA'
p20
sg8
g9
sg10
g16
sa(dp21
g2
S'2003-04'
p22
sg4
(lp23
I5
aI2
aI4
aI2
aI1
aI0
aI1
aI0
aI0
aI0
aI0
aI0
aI0
aI0
asg6
S'MIA'
p24
sg8
g9
sg10
g11
sa(dp25
g2
S'2003-04'
p26
sg4
(lp27
I3
aI0
aI2
aI1
aI0
aI0
aI1
aI0
aI0
aI0
aI0
aI0
aI0
aI0
asg6
S'MEM'
p28
sg8
g9
sg10
g11
sa(dp29
g2
S'2003-04'
p30
sg4
(lp31
I5
aI2
aI6
aI1
aI0
aI0
aI0
aI0
aI0
aI0
aI0
aI0
aI0
aI0
asg6
S'TOR'
p32
sg8
g9
sg10
g16
sa(dp33
g2
S'2003-04'
p34
sg4
(lp35
I3
aI3
aI4
aI1
aI0
aI0
aI0
aI0
aI0
aI0
aI0
aI0
aI0
aI0
asg6
S'GSW'
p36
sg8
g9
sg10
g16
sa(dp37
g2
S'2003-04'
p38
sg4
(lp39
I1
aI0
aI1
aI0
aI0
aI0
aI0
aI0
aI0
aI0
aI0
aI0
aI0
aI0
asg6
S'MIL'
p40
sg8
g9
sg10
g11
sa(dp41
g2
S'2003-04'
p42
sg4
(lp43
I1
aI1
aI1
aI1
aI0
aI0
aI0
aI0
aI0
aI0
aI0
aI0
aI0
aI0
asg6
S'DAL'
p44
sg8
g9
sg10
g11
sa(dp45
g2
S'2003-04'
p46
sg4
(lp47
I0
aI0
aI0
aI0
aI0
aI0
aI0
aI0
aI0
aI0
aI0
aI0
aI0
aI0
asg6
S'SAS'
p48
sg8
g9
sg10
g11
sa(dp49
g2
S'2003-04'
p50
sg4
(lp51
I5
aI0
aI4
aI0
aI0
aI0
aI1
aI0
aI0
aI0
aI0
aI0
aI0
aI0
asg6
S'NJN'
p52
sg8
g9
sg10
g16
sa(dp53
g2
S'2003-04'
p54
sg4
(lp55
I2
aI2
aI2
aI2
aI0
aI0
aI1
aI0
aI0
aI0
aI0
aI0
aI0
aI0
asg6
S'PHI'
p56
sg8
g9
sg10
g11
sa(dp57
g2
S'2003-04'
p58
sg4
(lp59
I4
aI1
aI3
aI1
aI0
aI0
aI0
aI0
aI0
aI0
aI0
aI0
aI0
aI0
asg6
S'PHX'
p60
sg8
g9
sg10
g16
sa(dp61
g2
S'2003-04'
p62
sg4
(lp63
I3
aI0
aI1
aI1
aI0
aI0
aI0
aI0
aI0
aI0
aI0
aI0
aI0
aI0
asg6
S'DET'
p64
sg8
g9
sg10
g16
sa(dp65
g2
S'2003-04'
p66
sg4
(lp67
I1
aI4
aI5
aI0
aI0
aI0
aI0
aI0
aI0
aI0
aI0
aI0
aI0
aI0
asg6
S'UTA'
p68
sg8
g9
sg10
g16
sa(dp69
g2
S'2003-04'
p70
sg4
(lp71
I1
aI2
aI2
aI1
aI0
aI0
aI2
aI0
aI0
aI0
aI0
aI0
aI0
aI0
asg6
S'CHI'
p72
sg8
g9
sg10
g16
sa(dp73
g2
S'2003-04'
p74
sg4
(lp75
I2
aI1
aI0
aI0
aI0
aI0
aI0
aI1
aI0
aI0
aI0
aI0
aI0
aI0
asg6
S'IND'
p76
sg8
g9
sg10
g16
sa(dp77
g2
S'2003-04'
p78
sg4
(lp79
I4
aI0
aI2
aI1
aI0
aI0
aI0
aI0
aI0
aI0
aI0
aI0
aI0
aI0
asg6
S'TOR'
p80
sg8
g9
sg10
g11
sa(dp81
g2
S'2003-04'
p82
sg4
(lp83
I4
aI1
aI4
aI1
aI0
aI0
aI1
aI0
aI1
aI0
aI1
aI0
aI0
aI0
asg6
S'ATL'
p84
sg8
g9
sg10
g11
sa(dp85
g2
S'2003-04'
p86
sg4
(lp87
I1
aI1
aI1
aI0
aI0
aI0
aI0
aI0
aI0
aI0
aI0
aI0
aI0
aI0
asg6
S'MIL'
p88
sg8
g9
sg10
g16
sa(dp89
g2
S'2003-04'
p90
sg4
(lp91
I1
aI1
aI2
aI0
aI0
aI0
aI0
aI0
aI0
aI0
aI0
aI0
aI0
aI0
asg6
S'NOH'
p92
sg8
g9
sg10
g11
sa(dp93
g2
S'2003-04'
p94
sg4
(lp95
I3
aI0
aI2
aI1
aI0
aI0
aI0
aI0
aI0
aI0
aI0
aI0
aI0
aI0
asg6
S'ATL'
p96
sg8
g9
sg10
g16
sa(dp97
g2
S'2003-04'
p98
sg4
(lp99
I2
aI1
aI2
aI1
aI0
aI0
aI0
aI0
aI0
aI0
aI0
aI0
aI0
aI0
asg6
S'CHI'
p100
sg8
g9
sg10
g11
sa(dp101
g2
S'2003-04'
p102
sg4
(lp103
I4
aI1
aI3
aI0
aI0
aI0
aI0
aI0
aI0
aI0
aI0
aI0
aI0
aI0
asg6
S'ORL'
p104
sg8
g9
sg10
g11
sa(dp105
g2
S'2003-04'
p106
sg4
(lp107
I1
aI1
aI0
aI1
aI0
aI0
aI0
aI0
aI0
aI0
aI0
aI0
aI0
aI0
asg6
S'HOU'
p108
sg8
g9
sg10
g11
sa(dp109
g2
S'2003-04'
p110
sg4
(lp111
I3
aI0
aI3
aI0
aI0
aI0
aI0
aI0
aI0
aI0
aI0
aI0
aI0
aI0
asg6
S'NOH'
p112
sg8
g9
sg10
g16
sa(dp113
g2
S'2003-04'
p114
sg4
(lp115
I4
aI2
aI4
aI2
aI0
aI0
aI0
aI0
aI0
aI0
aI0
aI0
aI0
aI0
asg6
S'NYK'
p116
sg8
g9
sg10
g11
sa(dp117
g2
S'2003-04'
p118
sg4
(lp119
I4
aI0
aI0
aI0
aI0
aI0
aI0
aI0
aI0
aI0
aI0
aI0
aI0
aI0
asg6
S'SAS'
p120
sg8
g9
sg10
g16
sa(dp121
g2
S'2003-04'
p122
sg4
(lp123
I2
aI0
aI2
aI0
aI0
aI0
aI0
aI0
aI0
aI0
aI0
aI0
aI0
aI0
asg6
S'DAL'
p124
sg8
g9
sg10
g16
sa(dp125
g2
S'2003-04'
p126
sg4
(lp127
I2
aI0
aI2
aI0
aI0
aI0
aI1
aI0
aI0
aI0
aI0
aI0
aI0
aI0
asg6
S'NJN'
p128
sg8
g9
sg10
g16
sa(dp129
g2
S'2003-04'
p130
sg4
(lp131
I2
aI1
aI2
aI0
aI0
aI0
aI1
aI0
aI0
aI0
aI0
aI0
aI0
aI0
asg6
S'BOS'
p132
sg8
g9
sg10
g16
sa(dp133
g2
S'2003-04'
p134
sg4
(lp135
I1
aI0
aI1
aI0
aI0
aI0
aI0
aI0
aI0
aI0
aI0
aI0
aI0
aI0
asg6
S'WAS'
p136
sg8
g9
sg10
g16
sa(dp137
g2
S'2003-04'
p138
sg4
(lp139
I1
aI1
aI0
aI2
aI0
aI0
aI0
aI0
aI0
aI0
aI0
aI0
aI0
aI0
asg6
S'MIN'
p140
sg8
g9
sg10
g11
sa(dp141
g2
S'2003-04'
p142
sg4
(lp143
I2
aI1
aI2
aI0
aI0
aI0
aI0
aI0
aI0
aI0
aI0
aI0
aI0
aI0
asg6
S'LAL'
p144
sg8
g9
sg10
g16
sa(dp145
g2
S'2003-04'
p146
sg4
(lp147
I1
aI0
aI1
aI0
aI0
aI0
aI0
aI0
aI0
aI0
aI0
aI0
aI0
aI0
asg6
S'DET'
p148
sg8
g9
sg10
g11
sa(dp149
g2
S'2003-04'
p150
sg4
(lp151
I7
aI0
aI2
aI1
aI0
aI0
aI0
aI1
aI0
aI0
aI0
aI0
aI0
aI0
asg6
S'WAS'
p152
sg8
g9
sg10
g11
sa(dp153
g2
S'2003-04'
p154
sg4
(lp155
I3
aI1
aI2
aI1
aI0
aI1
aI0
aI0
aI0
aI0
aI0
aI0
aI0
aI0
asg6
S'MIL'
p156
sg8
g9
sg10
g11
sa(dp157
g2
S'2003-04'
p158
sg4
(lp159
I4
aI2
aI3
aI1
aI0
aI0
aI0
aI0
aI0
aI0
aI0
aI0
aI0
aI0
asg6
S'MIA'
p160
sg8
g9
sg10
g16
sa(dp161
g2
S'2003-04'
p162
sg4
(lp163
I1
aI0
aI0
aI0
aI0
aI0
aI0
aI1
aI0
aI0
aI0
aI0
aI0
aI0
asg6
S'ORL'
p164
sg8
g9
sg10
g16
sa(dp165
g2
S'2003-04'
p166
sg4
(lp167
I2
aI1
aI1
aI1
aI0
aI0
aI0
aI0
aI0
aI0
aI0
aI0
aI0
aI0
asg6
S'UTA'
p168
sg8
g9
sg10
g11
sa(dp169
g2
S'2003-04'
p170
sg4
(lp171
I6
aI1
aI5
aI1
aI0
aI0
aI0
aI0
aI0
aI0
aI0
aI0
aI0
aI0
asg6
S'GSW'
p172
sg8
g9
sg10
g11
sa(dp173
g2
S'2003-04'
p174
sg4
(lp175
I3
aI0
aI2
aI1
aI0
aI0
aI0
aI0
aI0
aI0
aI0
aI0
aI0
aI0
asg6
S'SEA'
p176
sg8
g9
sg10
g11
sa(dp177
g2
S'2003-04'
p178
sg4
(lp179
I2
aI1
aI2
aI0
aI0
aI0
aI0
aI0
aI0
aI0
aI0
aI0
aI0
aI0
asg6
S'LAL'
p180
sg8
g9
sg10
g11
sa(dp181
g2
S'2003-04'
p182
sg4
(lp183
I3
aI1
aI2
aI1
aI0
aI0
aI0
aI0
aI0
aI0
aI0
aI0
aI0
aI0
asg6
S'BOS'
p184
sg8
g9
sg10
g11
sa(dp185
g2
S'2003-04'
p186
sg4
(lp187
I0
aI1
aI1
aI0
aI0
aI0
aI0
aI0
aI0
aI0
aI0
aI0
aI0
aI0
asg6
S'TOR'
p188
sg8
g9
sg10
g11
sa(dp189
g2
S'2003-04'
p190
sg4
(lp191
I1
aI0
aI1
aI0
aI0
aI0
aI0
aI0
aI0
aI0
aI0
aI0
aI0
aI0
asg6
S'NYK'
p192
sg8
g9
sg10
g16
sa(dp193
g2
S'2003-04'
p194
sg4
(lp195
I1
aI1
aI1
aI1
aI0
aI0
aI0
aI0
aI0
aI0
aI0
aI0
aI0
aI0
asg6
S'NJN'
p196
sg8
g9
sg10
g11
sa(dp197
g2
S'2003-04'
p198
sg4
(lp199
I3
aI0
aI1
aI2
aI0
aI0
aI0
aI0
aI0
aI0
aI0
aI0
aI0
aI0
asg6
S'IND'
p200
sg8
g9
sg10
g16
sa(dp201
g2
S'2003-04'
p202
sg4
(lp203
I0
aI0
aI0
aI0
aI0
aI0
aI2
aI0
aI0
aI0
aI0
aI0
aI0
aI0
asg6
S'POR'
p204
sg8
g9
sg10
g16
sa(dp205
g2
S'2003-04'
p206
sg4
(lp207
I2
aI0
aI1
aI1
aI0
aI0
aI0
aI0
aI0
aI0
aI0
aI0
aI0
aI0
asg6
S'CHI'
p208
sg8
g9
sg10
g16
sa(dp209
g2
S'2003-04'
p210
sg4
(lp211
I1
aI1
aI2
aI0
aI0
aI0
aI0
aI0
aI0
aI0
aI0
aI0
aI1
aI0
asg6
S'ORL'
p212
sg8
g9
sg10
g11
sa(dp213
g2
S'2003-04'
p214
sg4
(lp215
I3
aI0
aI2
aI1
aI0
aI0
aI2
aI0
aI0
aI0
aI0
aI0
aI0
aI0
asg6
S'NOH'
p216
sg8
g9
sg10
g16
sa(dp217
g2
S'2003-04'
p218
sg4
(lp219
I5
aI1
aI4
aI1
aI0
aI0
aI1
aI0
aI0
aI0
aI0
aI0
aI0
aI0
asg6
S'CHI'
p220
sg8
g9
sg10
g11
sa(dp221
g2
S'2003-04'
p222
sg4
(lp223
I2
aI0
aI1
aI0
aI0
aI0
aI0
aI0
aI0
aI0
aI0
aI0
aI0
aI0
asg6
S'PHI'
p224
sg8
g9
sg10
g11
sa(dp225
g2
S'2003-04'
p226
sg4
(lp227
I1
aI0
aI0
aI1
aI0
aI0
aI0
aI0
aI0
aI0
aI0
aI0
aI0
aI0
asg6
S'HOU'
p228
sg8
g9
sg10
g16
sa(dp229
g2
S'2003-04'
p230
sg4
(lp231
I4
aI0
aI3
aI1
aI0
aI0
aI0
aI0
aI0
aI0
aI0
aI0
aI0
aI0
asg6
S'IND'
p232
sg8
g9
sg10
g11
sa(dp233
g2
S'2003-04'
p234
sg4
(lp235
I9
aI1
aI7
aI1
aI0
aI0
aI0
aI0
aI0
aI0
aI0
aI0
aI0
aI0
asg6
S'BOS'
p236
sg8
g9
sg10
g16
sa(dp237
g2
S'2003-04'
p238
sg4
(lp239
I3
aI1
aI3
aI1
aI0
aI0
aI0
aI0
aI0
aI0
aI0
aI0
aI0
aI0
asg6
S'DET'
p240
sg8
g9
sg10
g16
sa(dp241
g2
S'2003-04'
p242
sg4
(lp243
I3
aI0
aI1
aI0
aI0
aI0
aI0
aI0
aI0
aI0
aI0
aI0
aI0
aI0
asg6
S'TOR'
p244
sg8
g9
sg10
g16
sa(dp245
g2
S'2003-04'
p246
sg4
(lp247
I0
aI0
aI0
aI0
aI0
aI0
aI0
aI0
aI0
aI0
aI0
aI0
aI0
aI0
asg6
S'ATL'
p248
sg8
g9
sg10
g16
sa(dp249
g2
S'2003-04'
p250
sg4
(lp251
I0
aI0
aI0
aI0
aI0
aI0
aI0
aI0
aI0
aI0
aI0
aI0
aI0
aI0
asg6
S'LAC'
p252
sg8
g9
sg10
g11
sa(dp253
g2
S'2003-04'
p254
sg4
(lp255
I3
aI1
aI2
aI1
aI0
aI0
aI0
aI0
aI0
aI0
aI0
aI0
aI0
aI0
asg6
S'DEN'
p256
sg8
g9
sg10
g11
sa(dp257
g2
S'2003-04'
p258
sg4
(lp259
I2
aI0
aI0
aI1
aI0
aI0
aI0
aI0
aI0
aI0
aI0
aI0
aI0
aI0
asg6
S'MEM'
p260
sg8
g9
sg10
g16
sa(dp261
g2
S'2003-04'
p262
sg4
(lp263
I1
aI1
aI1
aI0
aI0
aI0
aI0
aI0
aI0
aI0
aI0
aI0
aI0
aI0
asg6
S'DET'
p264
sg8
g9
sg10
g11
sa(dp265
g2
S'2003-04'
p266
sg4
(lp267
I2
aI0
aI2
aI0
aI0
aI0
aI0
aI0
aI0
aI0
aI0
aI0
aI0
aI0
asg6
S'NOH'
p268
sg8
g9
sg10
g11
sa(dp269
g2
S'2003-04'
p270
sg4
(lp271
I3
aI1
aI4
aI0
aI0
aI0
aI0
aI0
aI1
aI0
aI1
aI0
aI0
aI0
asg6
S'ATL'
p272
sg8
g9
sg10
g11
sa(dp273
g2
S'2003-04'
p274
sg4
(lp275
I2
aI0
aI1
aI0
aI0
aI0
aI0
aI0
aI0
aI0
aI0
aI0
aI0
aI0
asg6
S'MIN'
p276
sg8
g9
sg10
g16
sa(dp277
g2
S'2003-04'
p278
sg4
(lp279
I3
aI1
aI3
aI1
aI0
aI0
aI0
aI0
aI0
aI0
aI0
aI0
aI0
aI0
asg6
S'WAS'
p280
sg8
g9
sg10
g11
sa(dp281
g2
S'2003-04'
p282
sg4
(lp283
I1
aI1
aI1
aI1
aI0
aI0
aI0
aI0
aI0
aI0
aI0
aI0
aI0
aI0
asg6
S'LAC'
p284
sg8
g9
sg10
g16
sa(dp285
g2
S'2003-04'
p286
sg4
(lp287
I1
aI1
aI1
aI1
aI0
aI0
aI0
aI0
aI0
aI0
aI0
aI0
aI0
aI0
asg6
S'PHI'
p288
sg8
g9
sg10
g16
sa(dp289
g2
S'2003-04'
p290
sg4
(lp291
I1
aI1
aI1
aI1
aI0
aI0
aI0
aI0
aI0
aI0
aI0
aI0
aI0
aI0
asg6
S'BOS'
p292
sg8
g9
sg10
g11
sa(dp293
g2
S'2003-04'
p294
sg4
(lp295
I1
aI2
aI3
aI0
aI0
aI0
aI0
aI0
aI0
aI0
aI0
aI0
aI0
aI0
asg6
S'MIA'
p296
sg8
g9
sg10
g11
sa(dp297
g2
S'2003-04'
p298
sg4
(lp299
I0
aI0
aI0
aI0
aI0
aI0
aI0
aI0
aI0
aI0
aI0
aI0
aI0
aI0
asg6
S'NYK'
p300
sg8
g9
sg10
g16
sa(dp301
g2
S'2003-04'
p302
sg4
(lp303
I0
aI2
aI1
aI1
aI0
aI0
aI0
aI0
aI0
aI0
aI0
aI0
aI0
aI0
asg6
S'WAS'
p304
sg8
g9
sg10
g16
sa(dp305
g2
S'2003-04'
p306
sg4
(lp307
I3
aI1
aI3
aI0
aI0
aI0
aI0
aI0
aI0
aI0
aI0
aI0
aI0
aI0
asg6
S'IND'
p308
sg8
g9
sg10
g11
sa(dp309
g2
S'2003-04'
p310
sg4
(lp311
I1
aI0
aI0
aI0
aI0
aI0
aI0
aI0
aI0
aI0
aI0
aI0
aI0
aI0
asg6
S'DEN'
p312
sg8
g9
sg10
g16
sa(dp313
g2
S'2003-04'
p314
sg4
(lp315
I1
aI0
aI1
aI0
aI0
aI0
aI0
aI0
aI0
aI0
aI0
aI0
aI0
aI0
asg6
S'POR'
p316
sg8
g9
sg10
g11
sa(dp317
g2
S'2003-04'
p318
sg4
(lp319
I1
aI3
aI3
aI0
aI0
aI0
aI0
aI0
aI0
aI0
aI0
aI0
aI0
aI0
asg6
S'PHX'
p320
sg8
g9
sg10
g11
sa(dp321
g2
S'2003-04'
p322
sg4
(lp323
I0
aI1
aI0
aI1
aI1
aI0
aI0
aI0
aI0
aI0
aI0
aI0
aI0
aI0
asg6
S'SAC'
p324
sg8
g9
sg10
g11
sa(dp325
g2
S'2004-05'
p326
sg4
(lp327
I1
aI3
aI3
aI1
aI0
aI0
aI1
aI1
aI0
aI0
aI0
aI0
aI0
aI0
asg6
S'TOR'
p328
sg8
g9
sg10
g11
sa(dp329
g2
S'2004-05'
p330
sg4
(lp331
I2
aI1
aI1
aI0
aI0
aI0
aI1
aI0
aI0
aI0
aI0
aI0
aI0
aI0
asg6
S'BOS'
p332
sg8
g9
sg10
g16
sa(dp333
g2
S'2004-05'
p334
sg4
(lp335
I5
aI0
aI3
aI1
aI0
aI0
aI3
aI1
aI0
aI0
aI0
aI0
aI0
aI1
asg6
S'DET'
p336
sg8
g9
sg10
g11
sa(dp337
g2
S'2004-05'
p338
sg4
(lp339
I3
aI2
aI2
aI0
aI0
aI0
aI0
aI1
aI0
aI0
aI0
aI0
aI0
aI0
asg6
S'WAS'
p340
sg8
g9
sg10
g11
sa(dp341
g2
S'2004-05'
p342
sg4
(lp343
I6
aI1
aI3
aI4
aI0
aI0
aI0
aI0
aI0
aI0
aI0
aI0
aI0
aI0
asg6
S'NYK'
p344
sg8
g9
sg10
g16
sa(dp345
g2
S'2004-05'
p346
sg4
(lp347
I5
aI1
aI3
aI0
aI0
aI0
aI0
aI1
aI0
aI0
aI0
aI0
aI0
aI0
asg6
S'ORL'
p348
sg8
g9
sg10
g11
sa(dp349
g2
S'2004-05'
p350
sg4
(lp351
I2
aI0
aI1
aI0
aI0
aI0
aI0
aI0
aI0
aI0
aI0
aI0
aI0
aI0
asg6
S'MIL'
p352
sg8
g9
sg10
g16
sa(dp353
g2
S'2004-05'
p354
sg4
(lp355
I5
aI0
aI5
aI0
aI0
aI0
aI1
aI0
aI0
aI0
aI0
aI0
aI0
aI0
asg6
S'PHI'
p356
sg8
g9
sg10
g11
sa(dp357
g2
S'2004-05'
p358
sg4
(lp359
I2
aI0
aI0
aI2
aI0
aI0
aI0
aI0
aI0
aI0
aI0
aI0
aI0
aI0
asg6
S'IND'
p360
sg8
g9
sg10
g11
sa(dp361
g2
S'2004-05'
p362
sg4
(lp363
I1
aI1
aI1
aI1
aI0
aI0
aI1
aI1
aI0
aI0
aI0
aI0
aI0
aI0
asg6
S'NJN'
p364
sg8
g9
sg10
g16
sa(dp365
g2
S'2004-05'
p366
sg4
(lp367
I5
aI0
aI5
aI0
aI1
aI0
aI2
aI0
aI0
aI0
aI0
aI0
aI0
aI0
asg6
S'DAL'
p368
sg8
g9
sg10
g16
sa(dp369
g2
S'2004-05'
p370
sg4
(lp371
I3
aI2
aI4
aI1
aI0
aI0
aI0
aI0
aI0
aI0
aI0
aI0
aI0
aI0
asg6
S'SAC'
p372
sg8
g9
sg10
g16
sa(dp373
g2
S'2004-05'
p374
sg4
(lp375
I2
aI3
aI3
aI2
aI0
aI0
aI0
aI1
aI0
aI0
aI0
aI0
aI0
aI0
asg6
S'CHI'
p376
sg8
g9
sg10
g11
sa(dp377
g2
S'2004-05'
p378
sg4
(lp379
I3
aI0
aI2
aI1
aI0
aI0
aI1
aI0
aI0
aI0
aI0
aI0
aI0
aI0
asg6
S'LAC'
p380
sg8
g9
sg10
g16
sa(dp381
g2
S'2004-05'
p382
sg4
(lp383
I4
aI2
aI4
aI0
aI0
aI0
aI1
aI0
aI0
aI0
aI0
aI0
aI0
aI0
asg6
S'NOK'
p384
sg8
g9
sg10
g11
sa(dp385
g2
S'2004-05'
p386
sg4
(lp387
I2
aI1
aI3
aI0
aI0
aI0
aI0
aI0
aI0
aI0
aI0
aI0
aI0
aI0
asg6
S'DAL'
p388
sg8
g9
sg10
g11
sa(dp389
g2
S'2004-05'
p390
sg4
(lp391
I2
aI1
aI2
aI1
aI0
aI0
aI0
aI1
aI0
aI0
aI0
aI0
aI0
aI0
asg6
S'HOU'
p392
sg8
g9
sg10
g11
sa(dp393
g2
S'2004-05'
p394
sg4
(lp395
I2
aI2
aI3
aI0
aI0
aI0
aI0
aI1
aI0
aI0
aI0
aI0
aI0
aI0
asg6
S'DET'
p396
sg8
g9
sg10
g16
sa(dp397
g2
S'2004-05'
p398
sg4
(lp399
I8
aI0
aI6
aI1
aI0
aI0
aI0
aI0
aI0
aI0
aI0
aI0
aI0
aI0
asg6
S'TOR'
p400
sg8
g9
sg10
g11
sa(dp401
g2
S'2004-05'
p402
sg4
(lp403
I4
aI2
aI6
aI0
aI0
aI0
aI0
aI0
aI0
aI0
aI0
aI0
aI0
aI0
asg6
S'PHI'
p404
sg8
g9
sg10
g16
sa(dp405
g2
S'2004-05'
p406
sg4
(lp407
I3
aI1
aI1
aI2
aI0
aI0
aI0
aI0
aI0
aI0
aI0
aI0
aI0
aI0
asg6
S'MIL'
p408
sg8
g9
sg10
g11
sa(dp409
g2
S'2004-05'
p410
sg4
(lp411
I6
aI2
aI5
aI2
aI1
aI0
aI0
aI0
aI0
aI0
aI0
aI0
aI0
aI0
asg6
S'UTA'
p412
sg8
g9
sg10
g16
sa(dp413
g2
S'2004-05'
p414
sg4
(lp415
I4
aI1
aI5
aI0
aI0
aI0
aI1
aI0
aI0
aI0
aI0
aI0
aI0
aI0
asg6
S'IND'
p416
sg8
g9
sg10
g16
sa(dp417
g2
S'2004-05'
p418
sg4
(lp419
I2
aI0
aI1
aI0
aI0
aI0
aI0
aI1
aI0
aI0
aI0
aI0
aI0
aI0
asg6
S'ORL'
p420
sg8
g9
sg10
g16
sa(dp421
g2
S'2004-05'
p422
sg4
(lp423
I3
aI1
aI2
aI1
aI0
aI0
aI0
aI0
aI0
aI0
aI0
aI0
aI0
aI0
asg6
S'MIA'
p424
sg8
g9
sg10
g16
sa(dp425
g2
S'2004-05'
p426
sg4
(lp427
I4
aI1
aI4
aI1
aI0
aI0
aI2
aI0
aI0
aI0
aI0
aI0
aI0
aI0
asg6
S'PHI'
p428
sg8
g9
sg10
g11
sa(dp429
g2
S'2004-05'
p430
sg4
(lp431
I3
aI1
aI1
aI2
aI0
aI0
aI1
aI0
aI0
aI0
aI0
aI0
aI0
aI0
asg6
S'SEA'
p432
sg8
g9
sg10
g16
sa(dp433
g2
S'2004-05'
p434
sg4
(lp435
I4
aI1
aI3
aI2
aI0
aI0
aI0
aI0
aI0
aI0
aI0
aI0
aI0
aI0
asg6
S'SAS'
p436
sg8
g9
sg10
g16
sa(dp437
g2
S'2004-05'
p438
sg4
(lp439
I5
aI1
aI4
aI0
aI0
aI0
aI0
aI0
aI0
aI0
aI0
aI0
aI0
aI0
asg6
S'NJN'
p440
sg8
g9
sg10
g11
sa(dp441
g2
S'2004-05'
p442
sg4
(lp443
I2
aI1
aI1
aI0
aI0
aI0
aI0
aI0
aI0
aI0
aI0
aI0
aI0
aI0
asg6
S'IND'
p444
sg8
g9
sg10
g11
sa(dp445
g2
S'2004-05'
p446
sg4
(lp447
I7
aI1
aI3
aI4
aI0
aI0
aI0
aI0
aI0
aI0
aI0
aI0
aI0
aI0
asg6
S'CHI'
p448
sg8
g9
sg10
g16
sa(dp449
g2
S'2004-05'
p450
sg4
(lp451
I3
aI0
aI2
aI1
aI0
aI0
aI0
aI0
aI0
aI0
aI0
aI0
aI0
aI0
asg6
S'MIN'
p452
sg8
g9
sg10
g11
sa(dp453
g2
S'2004-05'
p454
sg4
(lp455
I3
aI0
aI1
aI1
aI0
aI0
aI0
aI0
aI0
aI0
aI0
aI0
aI0
aI0
asg6
S'ATL'
p456
sg8
g9
sg10
g16
sa(dp457
g2
S'2004-05'
p458
sg4
(lp459
I4
aI1
aI5
aI0
aI0
aI0
aI0
aI0
aI0
aI0
aI0
aI0
aI0
aI0
asg6
S'LAL'
p460
sg8
g9
sg10
g16
sa(dp461
g2
S'2004-05'
p462
sg4
(lp463
I6
aI1
aI4
aI1
aI0
aI0
aI0
aI0
aI0
aI0
aI0
aI0
aI0
aI0
asg6
S'DEN'
p464
sg8
g9
sg10
g16
sa(dp465
g2
S'2004-05'
p466
sg4
(lp467
I2
aI1
aI1
aI0
aI0
aI0
aI0
aI0
aI0
aI0
aI0
aI0
aI0
aI0
asg6
S'TOR'
p468
sg8
g9
sg10
g16
sa(dp469
g2
S'2004-05'
p470
sg4
(lp471
I7
aI0
aI5
aI1
aI0
aI0
aI0
aI0
aI0
aI0
aI0
aI0
aI0
aI0
asg6
S'ORL'
p472
sg8
g9
sg10
g16
sa(dp473
g2
S'2004-05'
p474
sg4
(lp475
I4
aI3
aI4
aI1
aI0
aI0
aI0
aI0
aI0
aI0
aI0
aI0
aI0
aI0
asg6
S'MIA'
p476
sg8
g9
sg10
g11
sa(dp477
g2
S'2004-05'
p478
sg4
(lp479
I4
aI3
aI4
aI2
aI0
aI0
aI0
aI0
aI0
aI0
aI0
aI0
aI0
aI0
asg6
S'ORL'
p480
sg8
g9
sg10
g11
sa(dp481
g2
S'2004-05'
p482
sg4
(lp483
I1
aI1
aI2
aI0
aI0
aI0
aI0
aI0
aI0
aI0
aI0
aI0
aI0
aI0
asg6
S'MEM'
p484
sg8
g9
sg10
g16
sa(dp485
g2
S'2004-05'
p486
sg4
(lp487
I4
aI2
aI2
aI2
aI0
aI0
aI0
aI0
aI0
aI0
aI0
aI0
aI0
aI0
asg6
S'WAS'
p488
sg8
g9
sg10
g16
sa(dp489
g2
S'2004-05'
p490
sg4
(lp491
I1
aI0
aI1
aI0
aI0
aI0
aI0
aI0
aI0
aI0
aI0
aI0
aI0
aI0
asg6
S'GSW'
p492
sg8
g9
sg10
g11
sa(dp493
g2
S'2004-05'
p494
sg4
(lp495
I0
aI1
aI0
aI0
aI0
aI0
aI0
aI0
aI0
aI0
aI0
aI0
aI0
aI0
asg6
S'SAC'
p496
sg8
g9
sg10
g11
sa(dp497
g2
S'2004-05'
p498
sg4
(lp499
I2
aI1
aI2
aI0
aI0
aI0
aI0
aI1
aI0
aI0
aI0
aI0
aI0
aI0
asg6
S'POR'
p500
sg8
g9
sg10
g11
sa(dp501
g2
S'2004-05'
p502
sg4
(lp503
I4
aI0
aI0
aI2
aI0
aI0
aI0
aI0
aI0
aI0
aI0
aI0
aI0
aI0
asg6
S'SEA'
p504
sg8
g9
sg10
g11
sa(dp505
g2
S'2004-05'
p506
sg4
(lp507
I5
aI2
aI4
aI2
aI0
aI0
aI0
aI1
aI0
aI0
aI0
aI0
aI0
aI0
asg6
S'UTA'
p508
sg8
g9
sg10
g11
sa(dp509
g2
S'2004-05'
p510
sg4
(lp511
I2
aI0
aI1
aI1
aI0
aI0
aI0
aI0
aI0
aI0
aI0
aI0
aI0
aI0
asg6
S'LAL'
p512
sg8
g9
sg10
g11
sa(dp513
g2
S'2004-05'
p514
sg4
(lp515
I4
aI0
aI1
aI1
aI0
aI0
aI0
aI1
aI0
aI0
aI0
aI0
aI0
aI0
asg6
S'CHA'
p516
sg8
g9
sg10
g16
sa(dp517
g2
S'2004-05'
p518
sg4
(lp519
I2
aI0
aI0
aI0
aI0
aI0
aI0
aI0
aI0
aI0
aI0
aI0
aI0
aI0
asg6
S'NYK'
p520
sg8
g9
sg10
g16
sa(dp521
g2
S'2004-05'
p522
sg4
(lp523
I2
aI1
aI2
aI1
aI0
aI0
aI0
aI0
aI0
aI0
aI0
aI0
aI0
aI0
asg6
S'ATL'
p524
sg8
g9
sg10
g16
sa(dp525
g2
S'2004-05'
p526
sg4
(lp527
I2
aI2
aI2
aI0
aI0
aI0
aI0
aI0
aI0
aI0
aI0
aI0
aI0
aI0
asg6
S'CHA'
p528
sg8
g9
sg10
g11
sa(dp529
g2
S'2004-05'
p530
sg4
(lp531
I2
aI0
aI1
aI1
aI0
aI0
aI0
aI1
aI0
aI0
aI0
aI0
aI0
aI0
asg6
S'HOU'
p532
sg8
g9
sg10
g16
sa(dp533
g2
S'2004-05'
p534
sg4
(lp535
I4
aI2
aI5
aI1
aI1
aI0
aI1
aI0
aI0
aI0
aI0
aI0
aI0
aI0
asg6
S'ATL'
p536
sg8
g9
sg10
g11
sa(dp537
g2
S'2004-05'
p538
sg4
(lp539
I5
aI0
aI3
aI1
aI0
aI0
aI0
aI0
aI0
aI0
aI0
aI0
aI0
aI0
asg6
S'NOK'
p540
sg8
g9
sg10
g16
sa(dp541
g2
S'2004-05'
p542
sg4
(lp543
I3
aI2
aI5
aI0
aI0
aI0
aI0
aI0
aI0
aI0
aI0
aI0
aI0
aI0
asg6
S'NJN'
p544
sg8
g9
sg10
g11
sa(dp545
g2
S'2004-05'
p546
sg4
(lp547
I2
aI2
aI4
aI0
aI0
aI0
aI0
aI0
aI0
aI0
aI0
aI0
aI0
aI0
asg6
S'MIN'
p548
sg8
g9
sg10
g16
sa(dp549
g2
S'2004-05'
p550
sg4
(lp551
I2
aI2
aI2
aI1
aI0
aI0
aI0
aI1
aI0
aI0
aI0
aI0
aI0
aI0
asg6
S'BOS'
p552
sg8
g9
sg10
g16
sa(dp553
g2
S'2004-05'
p554
sg4
(lp555
I2
aI1
aI1
aI1
aI0
aI0
aI0
aI0
aI0
aI0
aI0
aI0
aI0
aI0
asg6
S'DET'
p556
sg8
g9
sg10
g11
sa(dp557
g2
S'2004-05'
p558
sg4
(lp559
I2
aI0
aI1
aI0
aI0
aI0
aI0
aI0
aI0
aI0
aI0
aI0
aI0
aI0
asg6
S'POR'
p560
sg8
g9
sg10
g16
sa(dp561
g2
S'2004-05'
p562
sg4
(lp563
I1
aI1
aI1
aI0
aI0
aI0
aI0
aI1
aI0
aI0
aI0
aI0
aI0
aI0
asg6
S'MEM'
p564
sg8
g9
sg10
g11
sa(dp565
g2
S'2004-05'
p566
sg4
(lp567
I1
aI0
aI1
aI0
aI0
aI0
aI0
aI0
aI0
aI0
aI0
aI0
aI0
aI0
asg6
S'SAS'
p568
sg8
g9
sg10
g11
sa(dp569
g2
S'2004-05'
p570
sg4
(lp571
I3
aI3
aI6
aI0
aI0
aI0
aI0
aI0
aI0
aI0
aI0
aI0
aI0
aI0
asg6
S'CHI'
p572
sg8
g9
sg10
g11
sa(dp573
g2
S'2004-05'
p574
sg4
(lp575
I2
aI0
aI2
aI0
aI0
aI0
aI1
aI1
aI0
aI0
aI0
aI0
aI0
aI0
asg6
S'NJN'
p576
sg8
g9
sg10
g16
sa(dp577
g2
S'2004-05'
p578
sg4
(lp579
I3
aI1
aI3
aI0
aI0
aI0
aI0
aI0
aI0
aI0
aI0
aI0
aI0
aI0
asg6
S'TOR'
p580
sg8
g9
sg10
g16
sa(dp581
g2
S'2004-05'
p582
sg4
(lp583
I0
aI1
aI1
aI0
aI0
aI0
aI0
aI0
aI0
aI0
aI0
aI0
aI0
aI0
asg6
S'DEN'
p584
sg8
g9
sg10
g11
sa(dp585
g2
S'2004-05'
p586
sg4
(lp587
I2
aI0
aI1
aI1
aI0
aI0
aI0
aI0
aI0
aI0
aI0
aI0
aI0
aI0
asg6
S'PHO'
p588
sg8
g9
sg10
g11
sa(dp589
g2
S'2004-05'
p590
sg4
(lp591
I2
aI1
aI2
aI0
aI0
aI0
aI0
aI0
aI0
aI0
aI0
aI0
aI0
aI0
asg6
S'LAC'
p592
sg8
g9
sg10
g11
sa(dp593
g2
S'2004-05'
p594
sg4
(lp595
I2
aI0
aI1
aI0
aI0
aI0
aI0
aI1
aI0
aI0
aI0
aI0
aI0
aI0
asg6
S'CHI'
p596
sg8
g9
sg10
g16
sa(dp597
g2
S'2004-05'
p598
sg4
(lp599
I1
aI1
aI1
aI0
aI0
aI0
aI0
aI0
aI0
aI0
aI0
aI0
aI0
aI0
asg6
S'BOS'
p600
sg8
g9
sg10
g11
sa(dp601
g2
S'2004-05'
p602
sg4
(lp603
I6
aI1
aI5
aI0
aI0
aI0
aI0
aI0
aI0
aI0
aI0
aI0
aI0
aI0
asg6
S'DET'
p604
sg8
g9
sg10
g16
sa(dp605
g2
S'2004-05'
p606
sg4
(lp607
I1
aI1
aI1
aI0
aI0
aI0
aI0
aI0
aI0
aI0
aI0
aI0
aI0
aI0
asg6
S'NYK'
p608
sg8
g9
sg10
g11
sa(dp609
g2
S'2004-05'
p610
sg4
(lp611
I2
aI1
aI1
aI0
aI0
aI0
aI0
aI0
aI0
aI0
aI0
aI0
aI0
aI0
asg6
S'CHA'
p612
sg8
g9
sg10
g16
sa(dp613
g2
S'2004-05'
p614
sg4
(lp615
I0
aI0
aI0
aI0
aI0
aI0
aI0
aI0
aI1
aI0
aI0
aI1
aI0
aI0
asg6
S'CHA'
p616
sg8
g9
sg10
g11
sa(dp617
g2
S'2004-05'
p618
sg4
(lp619
I4
aI0
aI2
aI2
aI0
aI0
aI0
aI0
aI0
aI0
aI0
aI0
aI0
aI0
asg6
S'GOS'
p620
sg8
g9
sg10
g16
sa(dp621
g2
S'2004-05'
p622
sg4
(lp623
I2
aI1
aI2
aI0
aI0
aI0
aI0
aI0
aI0
aI0
aI0
aI0
aI0
aI0
asg6
S'WAS'
p624
sg8
g9
sg10
g16
sa(dp625
g2
S'2004-05'
p626
sg4
(lp627
I5
aI1
aI6
aI0
aI0
aI0
aI0
aI0
aI0
aI0
aI0
aI0
aI0
aI0
asg6
S'PHX'
p628
sg8
g9
sg10
g16
sa(dp629
g2
S'2004-05'
p630
sg4
(lp631
I5
aI1
aI3
aI2
aI0
aI0
aI0
aI1
aI0
aI0
aI0
aI0
aI0
aI0
asg6
S'ATL'
p632
sg8
g9
sg10
g11
sa(dp633
g2
S'2004-05'
p634
sg4
(lp635
I6
aI5
aI7
aI1
aI0
aI0
aI1
aI0
aI0
aI1
aI1
aI0
aI0
aI0
asg6
S'MIL'
p636
sg8
g9
sg10
g11
sa(dp637
g2
S'2004-05'
p638
sg4
(lp639
I1
aI0
aI0
aI0
aI0
aI0
aI0
aI0
aI0
aI0
aI0
aI0
aI0
aI0
asg6
S'MIA'
p640
sg8
g9
sg10
g11
sa(dp641
g2
S'2004-05'
p642
sg4
(lp643
I4
aI2
aI6
aI0
aI0
aI0
aI0
aI0
aI0
aI0
aI0
aI0
aI0
aI0
asg6
S'IND'
p644
sg8
g9
sg10
g16
sa(dp645
g2
S'2005-06'
p646
sg4
(lp647
I1
aI0
aI0
aI1
aI0
aI0
aI0
aI0
aI0
aI0
aI0
aI0
aI0
aI0
asg6
S'WAS'
p648
sg8
g9
sg10
g11
sa(dp649
g2
S'2005-06'
p650
sg4
(lp651
I3
aI2
aI3
aI0
aI0
aI0
aI0
aI0
aI0
aI0
aI0
aI0
aI0
aI0
asg6
S'DET'
p652
sg8
g9
sg10
g11
sa(dp653
g2
S'2005-06'
p654
sg4
(lp655
I4
aI3
aI4
aI1
aI0
aI0
aI0
aI0
aI0
aI0
aI0
aI0
aI0
aI0
asg6
S'NOK'
p656
sg8
g9
sg10
g11
sa(dp657
g2
S'2005-06'
p658
sg4
(lp659
I8
aI2
aI5
aI1
aI0
aI0
aI0
aI0
aI0
aI0
aI0
aI0
aI0
aI0
asg6
S'NJN'
p660
sg8
g9
sg10
g11
sa(dp661
g2
S'2005-06'
p662
sg4
(lp663
I3
aI4
aI4
aI2
aI0
aI0
aI1
aI0
aI0
aI0
aI0
aI0
aI0
aI0
asg6
S'NYK'
p664
sg8
g9
sg10
g11
sa(dp665
g2
S'2005-06'
p666
sg4
(lp667
I5
aI0
aI2
aI0
aI0
aI0
aI0
aI1
aI0
aI0
aI0
aI0
aI0
aI1
asg6
S'PHI'
p668
sg8
g9
sg10
g16
sa(dp669
g2
S'2005-06'
p670
sg4
(lp671
I4
aI1
aI3
aI1
aI0
aI0
aI0
aI0
aI0
aI0
aI0
aI0
aI0
aI0
asg6
S'CHA'
p672
sg8
g9
sg10
g11
sa(dp673
g2
S'2005-06'
p674
sg4
(lp675
I7
aI1
aI5
aI0
aI0
aI0
aI1
aI0
aI0
aI0
aI0
aI0
aI0
aI0
asg6
S'MIA'
p676
sg8
g9
sg10
g16
sa(dp677
g2
S'2005-06'
p678
sg4
(lp679
I4
aI2
aI2
aI1
aI0
aI0
aI0
aI0
aI2
aI0
aI2
aI0
aI0
aI0
asg6
S'DAL'
p680
sg8
g9
sg10
g16
sa(dp681
g2
S'2005-06'
p682
sg4
(lp683
I4
aI2
aI4
aI0
aI0
aI0
aI0
aI1
aI0
aI0
aI0
aI0
aI0
aI0
asg6
S'HOU'
p684
sg8
g9
sg10
g11
sa(dp685
g2
S'2005-06'
p686
sg4
(lp687
I3
aI1
aI3
aI0
aI0
aI0
aI0
aI1
aI0
aI0
aI0
aI0
aI0
aI0
asg6
S'BOS'
p688
sg8
g9
sg10
g16
sa(dp689
g2
S'2005-06'
p690
sg4
(lp691
I10
aI3
aI6
aI4
aI0
aI0
aI0
aI0
aI0
aI0
aI0
aI0
aI0
aI0
asg6
S'CHA'
p692
sg8
g9
sg10
g16
sa(dp693
g2
S'2005-06'
p694
sg4
(lp695
I4
aI2
aI2
aI2
aI0
aI0
aI0
aI0
aI0
aI0
aI0
aI0
aI0
aI0
asg6
S'LAL'
p696
sg8
g9
sg10
g16
sa(dp697
g2
S'2005-06'
p698
sg4
(lp699
I4
aI1
aI4
aI1
aI0
aI0
aI0
aI0
aI0
aI0
aI0
aI0
aI0
aI0
asg6
S'POR'
p700
sg8
g9
sg10
g16
sa(dp701
g2
S'2005-06'
p702
sg4
(lp703
I4
aI0
aI4
aI0
aI0
aI0
aI0
aI0
aI0
aI0
aI0
aI0
aI0
aI0
asg6
S'DAL'
p704
sg8
g9
sg10
g11
sa(dp705
g2
S'2005-06'
p706
sg4
(lp707
I13
aI2
aI11
aI1
aI0
aI0
aI0
aI1
aI0
aI0
aI0
aI0
aI0
aI0
asg6
S'MIA'
p708
sg8
g9
sg10
g11
sa(dp709
g2
S'2005-06'
p710
sg4
(lp711
I2
aI0
aI0
aI1
aI0
aI0
aI3
aI0
aI0
aI0
aI0
aI0
aI0
aI0
asg6
S'ORL'
p712
sg8
g9
sg10
g11
sa(dp713
g2
S'2005-06'
p714
sg4
(lp715
I6
aI1
aI2
aI3
aI0
aI0
aI0
aI0
aI0
aI0
aI0
aI0
aI0
aI0
asg6
S'TOR'
p716
sg8
g9
sg10
g11
sa(dp717
g2
S'2005-06'
p718
sg4
(lp719
I3
aI0
aI2
aI1
aI0
aI0
aI0
aI0
aI0
aI0
aI0
aI0
aI0
aI0
asg6
S'TOR'
p720
sg8
g9
sg10
g16
sa(dp721
g2
S'2005-06'
p722
sg4
(lp723
I4
aI0
aI2
aI0
aI0
aI0
aI0
aI0
aI0
aI0
aI0
aI0
aI0
aI0
asg6
S'CHI'
p724
sg8
g9
sg10
g16
sa(dp725
g2
S'2005-06'
p726
sg4
(lp727
I6
aI1
aI5
aI1
aI0
aI0
aI0
aI0
aI0
aI0
aI0
aI0
aI0
aI0
asg6
S'CHI'
p728
sg8
g9
sg10
g11
sa(dp729
g2
S'2005-06'
p730
sg4
(lp731
I2
aI2
aI2
aI1
aI0
aI0
aI0
aI0
aI0
aI0
aI0
aI0
aI0
aI0
asg6
S'SAC'
p732
sg8
g9
sg10
g16
sa(dp733
g2
S'2005-06'
p734
sg4
(lp735
I3
aI1
aI3
aI1
aI0
aI0
aI2
aI0
aI0
aI0
aI0
aI0
aI0
aI0
asg6
S'DET'
p736
sg8
g9
sg10
g16
sa(dp737
g2
S'2005-06'
p738
sg4
(lp739
I0
aI1
aI0
aI0
aI0
aI0
aI2
aI0
aI0
aI0
aI0
aI0
aI0
aI0
asg6
S'DET'
p740
sg8
g9
sg10
g11
sa(dp741
g2
S'2005-06'
p742
sg4
(lp743
I5
aI5
aI3
aI6
aI0
aI0
aI0
aI0
aI0
aI0
aI0
aI0
aI0
aI0
asg6
S'WAS'
p744
sg8
g9
sg10
g16
sa(dp745
g2
S'2005-06'
p746
sg4
(lp747
I3
aI2
aI3
aI2
aI0
aI0
aI0
aI0
aI0
aI0
aI0
aI0
aI0
aI0
asg6
S'PHI'
p748
sg8
g9
sg10
g11
sa(dp749
g2
S'2005-06'
p750
sg4
(lp751
I3
aI1
aI2
aI1
aI0
aI0
aI0
aI0
aI0
aI0
aI0
aI0
aI0
aI0
asg6
S'ORL'
p752
sg8
g9
sg10
g16
sa(dp753
g2
S'2005-06'
p754
sg4
(lp755
I5
aI3
aI5
aI1
aI0
aI0
aI1
aI0
aI0
aI0
aI0
aI0
aI0
aI0
asg6
S'BOS'
p756
sg8
g9
sg10
g11
sa(dp757
g2
S'2005-06'
p758
sg4
(lp759
I3
aI1
aI2
aI1
aI0
aI1
aI0
aI0
aI0
aI0
aI0
aI0
aI0
aI0
asg6
S'SAS'
p760
sg8
g9
sg10
g16
sa(dp761
g2
S'2005-06'
p762
sg4
(lp763
I5
aI0
aI3
aI0
aI0
aI0
aI0
aI0
aI0
aI0
aI0
aI0
aI0
aI0
asg6
S'GSW'
p764
sg8
g9
sg10
g16
sa(dp765
g2
S'2005-06'
p766
sg4
(lp767
I3
aI1
aI3
aI1
aI0
aI0
aI0
aI0
aI0
aI0
aI0
aI0
aI0
aI0
asg6
S'WAS'
p768
sg8
g9
sg10
g11
sa(dp769
g2
S'2005-06'
p770
sg4
(lp771
I5
aI4
aI7
aI1
aI0
aI0
aI0
aI0
aI0
aI0
aI0
aI0
aI0
aI0
asg6
S'MIN'
p772
sg8
g9
sg10
g11
sa(dp773
g2
S'2005-06'
p774
sg4
(lp775
I1
aI1
aI1
aI1
aI0
aI0
aI0
aI0
aI0
aI0
aI0
aI0
aI0
aI0
asg6
S'MIL'
p776
sg8
g9
sg10
g16
sa(dp777
g2
S'2005-06'
p778
sg4
(lp779
I5
aI0
aI3
aI1
aI0
aI0
aI1
aI0
aI0
aI0
aI0
aI0
aI0
aI0
asg6
S'PHI'
p780
sg8
g9
sg10
g16
sa(dp781
g2
S'2005-06'
p782
sg4
(lp783
I2
aI0
aI1
aI0
aI0
aI0
aI0
aI0
aI0
aI0
aI0
aI0
aI0
aI0
asg6
S'MIA'
p784
sg8
g9
sg10
g11
sa(dp785
g2
S'2005-06'
p786
sg4
(lp787
I7
aI0
aI3
aI2
aI0
aI0
aI0
aI0
aI0
aI0
aI0
aI0
aI0
aI0
asg6
S'NJN'
p788
sg8
g9
sg10
g16
sa(dp789
g2
S'2005-06'
p790
sg4
(lp791
I4
aI2
aI2
aI3
aI0
aI0
aI0
aI0
aI0
aI0
aI0
aI0
aI0
aI0
asg6
S'CHA'
p792
sg8
g9
sg10
g11
sa(dp793
g2
S'2005-06'
p794
sg4
(lp795
I5
aI2
aI2
aI3
aI0
aI0
aI0
aI0
aI0
aI0
aI0
aI0
aI0
aI0
asg6
S'PHX'
p796
sg8
g9
sg10
g16
sa(dp797
g2
S'2005-06'
p798
sg4
(lp799
I1
aI3
aI4
aI0
aI0
aI0
aI0
aI0
aI0
aI0
aI0
aI0
aI0
aI0
asg6
S'IND'
p800
sg8
g9
sg10
g11
sa(dp801
g2
S'2005-06'
p802
sg4
(lp803
I10
aI2
aI5
aI3
aI0
aI0
aI0
aI0
aI0
aI0
aI0
aI0
aI0
aI0
asg6
S'ATL'
p804
sg8
g9
sg10
g11
sa(dp805
g2
S'2005-06'
p806
sg4
(lp807
I2
aI2
aI3
aI1
aI0
aI0
aI2
aI0
aI0
aI0
aI0
aI0
aI0
aI0
asg6
S'IND'
p808
sg8
g9
sg10
g16
sa(dp809
g2
S'2005-06'
p810
sg4
(lp811
I5
aI2
aI4
aI0
aI0
aI0
aI0
aI0
aI0
aI0
aI0
aI0
aI0
aI0
asg6
S'UTA'
p812
sg8
g9
sg10
g11
sa(dp813
g2
S'2005-06'
p814
sg4
(lp815
I3
aI0
aI1
aI2
aI0
aI0
aI0
aI0
aI0
aI0
aI0
aI0
aI0
aI0
asg6
S'GSW'
p816
sg8
g9
sg10
g11
sa(dp817
g2
S'2005-06'
p818
sg4
(lp819
I5
aI2
aI2
aI4
aI0
aI0
aI1
aI1
aI0
aI0
aI0
aI0
aI0
aI0
asg6
S'DEN'
p820
sg8
g9
sg10
g11
sa(dp821
g2
S'2005-06'
p822
sg4
(lp823
I4
aI3
aI4
aI0
aI0
aI0
aI0
aI0
aI0
aI0
aI0
aI0
aI0
aI0
asg6
S'POR'
p824
sg8
g9
sg10
g11
sa(dp825
g2
S'2005-06'
p826
sg4
(lp827
I3
aI0
aI1
aI0
aI0
aI0
aI1
aI0
aI0
aI0
aI0
aI0
aI0
aI0
asg6
S'PHX'
p828
sg8
g9
sg10
g11
sa(dp829
g2
S'2005-06'
p830
sg4
(lp831
I3
aI2
aI1
aI3
aI0
aI0
aI0
aI0
aI0
aI0
aI0
aI0
aI0
aI0
asg6
S'LAL'
p832
sg8
g9
sg10
g11
sa(dp833
g2
S'2005-06'
p834
sg4
(lp835
I5
aI2
aI3
aI1
aI0
aI0
aI0
aI0
aI0
aI0
aI0
aI0
aI0
aI0
asg6
S'NYK'
p836
sg8
g9
sg10
g16
sa(dp837
g2
S'2005-06'
p838
sg4
(lp839
I2
aI4
aI2
aI1
aI0
aI0
aI0
aI0
aI0
aI0
aI0
aI0
aI0
aI0
asg6
S'MIL'
p840
sg8
g9
sg10
g16
sa(dp841
g2
S'2005-06'
p842
sg4
(lp843
I1
aI2
aI2
aI1
aI0
aI0
aI0
aI0
aI0
aI0
aI0
aI0
aI0
aI0
asg6
S'HOU'
p844
sg8
g9
sg10
g16
sa(dp845
g2
S'2005-06'
p846
sg4
(lp847
I3
aI1
aI3
aI0
aI0
aI0
aI0
aI0
aI0
aI0
aI0
aI0
aI0
aI0
asg6
S'MIL'
p848
sg8
g9
sg10
g11
sa(dp849
g2
S'2005-06'
p850
sg4
(lp851
I3
aI1
aI3
aI0
aI0
aI0
aI0
aI0
aI0
aI0
aI0
aI0
aI0
aI0
asg6
S'DET'
p852
sg8
g9
sg10
g16
sa(dp853
g2
S'2005-06'
p854
sg4
(lp855
I4
aI1
aI1
aI2
aI0
aI0
aI1
aI0
aI0
aI0
aI0
aI0
aI0
aI0
asg6
S'NJN'
p856
sg8
g9
sg10
g11
sa(dp857
g2
S'2005-06'
p858
sg4
(lp859
I4
aI3
aI4
aI1
aI0
aI0
aI0
aI0
aI0
aI0
aI0
aI0
aI0
aI0
asg6
S'CHI'
p860
sg8
g9
sg10
g16
sa(dp861
g2
S'2005-06'
p862
sg4
(lp863
I3
aI3
aI3
aI2
aI0
aI0
aI0
aI0
aI0
aI0
aI0
aI0
aI0
aI0
asg6
S'IND'
p864
sg8
g9
sg10
g16
sa(dp865
g2
S'2005-06'
p866
sg4
(lp867
I5
aI2
aI4
aI2
aI0
aI0
aI0
aI0
aI0
aI0
aI0
aI0
aI0
aI0
asg6
S'CHI'
p868
sg8
g9
sg10
g11
sa(dp869
g2
S'2005-06'
p870
sg4
(lp871
I4
aI1
aI4
aI0
aI0
aI0
aI0
aI0
aI0
aI0
aI0
aI0
aI0
aI0
asg6
S'UTA'
p872
sg8
g9
sg10
g16
sa(dp873
g2
S'2005-06'
p874
sg4
(lp875
I6
aI0
aI5
aI1
aI0
aI0
aI4
aI0
aI0
aI0
aI0
aI0
aI0
aI0
asg6
S'MIA'
p876
sg8
g9
sg10
g16
sa(dp877
g2
S'2005-06'
p878
sg4
(lp879
I3
aI1
aI0
aI2
aI0
aI0
aI0
aI0
aI0
aI0
aI0
aI0
aI0
aI0
asg6
S'DEN'
p880
sg8
g9
sg10
g16
sa(dp881
g2
S'2005-06'
p882
sg4
(lp883
I5
aI4
aI5
aI2
aI0
aI0
aI0
aI0
aI0
aI0
aI0
aI0
aI0
aI0
asg6
S'ATL'
p884
sg8
g9
sg10
g16
sa(dp885
g2
S'2005-06'
p886
sg4
(lp887
I6
aI0
aI3
aI1
aI0
aI0
aI0
aI0
aI0
aI0
aI0
aI0
aI0
aI0
asg6
S'MIL'
p888
sg8
g9
sg10
g11
sa(dp889
g2
S'2005-06'
p890
sg4
(lp891
I4
aI4
aI5
aI1
aI0
aI0
aI1
aI0
aI0
aI0
aI0
aI0
aI0
aI0
asg6
S'NJN'
p892
sg8
g9
sg10
g16
sa(dp893
g2
S'2005-06'
p894
sg4
(lp895
I5
aI1
aI4
aI2
aI0
aI0
aI0
aI0
aI0
aI0
aI0
aI0
aI0
aI0
asg6
S'SAC'
p896
sg8
g9
sg10
g11
sa(dp897
g2
S'2005-06'
p898
sg4
(lp899
I4
aI3
aI7
aI0
aI0
aI0
aI0
aI0
aI0
aI0
aI0
aI0
aI0
aI0
asg6
S'LAC'
p900
sg8
g9
sg10
g11
sa(dp901
g2
S'2005-06'
p902
sg4
(lp903
I2
aI1
aI3
aI0
aI0
aI0
aI1
aI1
aI0
aI0
aI0
aI0
aI0
aI0
asg6
S'SEA'
p904
sg8
g9
sg10
g11
sa(dp905
g2
S'2005-06'
p906
sg4
(lp907
I8
aI0
aI6
aI2
aI0
aI0
aI0
aI1
aI0
aI0
aI0
aI0
aI0
aI0
asg6
S'LAC'
p908
sg8
g9
sg10
g16
sa(dp909
g2
S'2005-06'
p910
sg4
(lp911
I3
aI0
aI2
aI0
aI0
aI0
aI1
aI0
aI0
aI0
aI0
aI0
aI0
aI0
asg6
S'MIN'
p912
sg8
g9
sg10
g16
sa(dp913
g2
S'2005-06'
p914
sg4
(lp915
I2
aI3
aI5
aI0
aI0
aI0
aI0
aI1
aI0
aI0
aI0
aI0
aI0
aI0
asg6
S'IND'
p916
sg8
g9
sg10
g11
sa(dp917
g2
S'2005-06'
p918
sg4
(lp919
I4
aI1
aI2
aI1
aI0
aI0
aI3
aI0
aI0
aI0
aI0
aI0
aI0
aI0
asg6
S'BOS'
p920
sg8
g9
sg10
g16
sa(dp921
g2
S'2005-06'
p922
sg4
(lp923
I6
aI0
aI2
aI2
aI0
aI0
aI0
aI0
aI0
aI0
aI0
aI0
aI0
aI0
asg6
S'PHI'
p924
sg8
g9
sg10
g11
sa(dp925
g2
S'2005-06'
p926
sg4
(lp927
I2
aI2
aI2
aI0
aI0
aI0
aI0
aI0
aI0
aI0
aI0
aI0
aI0
aI0
asg6
S'ORL'
p928
sg8
g9
sg10
g16
sa(dp929
g2
S'2005-06'
p930
sg4
(lp931
I4
aI0
aI1
aI0
aI0
aI0
aI0
aI0
aI0
aI0
aI0
aI0
aI0
aI0
asg6
S'WAS'
p932
sg8
g9
sg10
g16
sa(dp933
g2
S'2005-06'
p934
sg4
(lp935
I4
aI3
aI3
aI1
aI0
aI0
aI0
aI0
aI0
aI0
aI0
aI0
aI0
aI0
asg6
S'ORL'
p936
sg8
g9
sg10
g11
sa(dp937
g2
S'2005-06'
p938
sg4
(lp939
I3
aI0
aI3
aI0
aI0
aI0
aI0
aI0
aI0
aI0
aI0
aI0
aI0
aI0
asg6
S'MEM'
p940
sg8
g9
sg10
g16
sa(dp941
g2
S'2005-06'
p942
sg4
(lp943
I6
aI0
aI5
aI0
aI0
aI0
aI0
aI0
aI0
aI0
aI0
aI0
aI0
aI0
asg6
S'SEA'
p944
sg8
g9
sg10
g16
sa(dp945
g2
S'2005-06'
p946
sg4
(lp947
I3
aI3
aI6
aI0
aI0
aI0
aI0
aI0
aI0
aI0
aI0
aI0
aI0
aI0
asg6
S'TOR'
p948
sg8
g9
sg10
g11
sa(dp949
g2
S'2005-06'
p950
sg4
(lp951
I3
aI0
aI1
aI1
aI0
aI0
aI0
aI0
aI0
aI0
aI0
aI0
aI0
aI0
asg6
S'MEM'
p952
sg8
g9
sg10
g11
sa(dp953
g2
S'2005-06'
p954
sg4
(lp955
I3
aI1
aI3
aI0
aI0
aI0
aI0
aI0
aI0
aI0
aI0
aI0
aI0
aI0
asg6
S'SAS'
p956
sg8
g9
sg10
g11
sa(dp957
g2
S'2005-06'
p958
sg4
(lp959
I3
aI1
aI3
aI0
aI0
aI0
aI1
aI0
aI0
aI0
aI0
aI0
aI0
aI0
asg6
S'NOK'
p960
sg8
g9
sg10
g16
sa(dp961
g2
S'2006-07'
p962
sg4
(lp963
I3
aI3
aI2
aI2
aI0
aI0
aI0
aI0
aI0
aI0
aI0
aI0
aI0
aI0
asg6
S'MIL'
p964
sg8
g9
sg10
g16
sa(dp965
g2
S'2006-07'
p966
sg4
(lp967
I3
aI1
aI1
aI2
aI0
aI0
aI0
aI0
aI0
aI0
aI0
aI0
aI0
aI0
asg6
S'PHI'
p968
sg8
g9
sg10
g11
sa(dp969
g2
S'2006-07'
p970
sg4
(lp971
I2
aI1
aI2
aI0
aI0
aI0
aI0
aI0
aI0
aI0
aI0
aI0
aI0
aI0
asg6
S'ATL'
p972
sg8
g9
sg10
g16
sa(dp973
g2
S'2006-07'
p974
sg4
(lp975
I5
aI1
aI0
aI3
aI0
aI0
aI0
aI0
aI0
aI0
aI0
aI0
aI0
aI0
asg6
S'NJN'
p976
sg8
g9
sg10
g16
sa(dp977
g2
S'2006-07'
p978
sg4
(lp979
I4
aI1
aI4
aI1
aI0
aI0
aI1
aI0
aI0
aI0
aI0
aI0
aI0
aI0
asg6
S'DET'
p980
sg8
g9
sg10
g11
sa(dp981
g2
S'2006-07'
p982
sg4
(lp983
I6
aI2
aI5
aI1
aI0
aI0
aI0
aI0
aI0
aI0
aI0
aI0
aI0
aI0
asg6
S'WAS'
p984
sg8
g9
sg10
g11
sa(dp985
g2
S'2006-07'
p986
sg4
(lp987
I5
aI1
aI5
aI0
aI0
aI0
aI1
aI1
aI0
aI0
aI0
aI0
aI0
aI0
asg6
S'MIA'
p988
sg8
g9
sg10
g16
sa(dp989
g2
S'2006-07'
p990
sg4
(lp991
I2
aI0
aI2
aI0
aI1
aI0
aI0
aI0
aI0
aI0
aI0
aI0
aI0
aI0
asg6
S'MIN'
p992
sg8
g9
sg10
g11
sa(dp993
g2
S'2006-07'
p994
sg4
(lp995
I6
aI1
aI5
aI0
aI0
aI0
aI0
aI1
aI0
aI0
aI0
aI0
aI0
aI0
asg6
S'CHI'
p996
sg8
g9
sg10
g11
sa(dp997
g2
S'2006-07'
p998
sg4
(lp999
I4
aI2
aI4
aI2
aI0
aI0
aI2
aI0
aI0
aI0
aI0
aI0
aI0
aI0
asg6
S'NYK'
p1000
sg8
g9
sg10
g11
sa(dp1001
g2
S'2006-07'
p1002
sg4
(lp1003
I6
aI1
aI4
aI3
aI0
aI0
aI0
aI0
aI0
aI0
aI0
aI0
aI0
aI0
asg6
S'IND'
p1004
sg8
g9
sg10
g11
sa(dp1005
g2
S'2006-07'
p1006
sg4
(lp1007
I1
aI0
aI0
aI0
aI0
aI0
aI0
aI0
aI0
aI0
aI0
aI0
aI0
aI0
asg6
S'DEN'
p1008
sg8
g9
sg10
g16
sa(dp1009
g2
S'2006-07'
p1010
sg4
(lp1011
I4
aI1
aI1
aI0
aI0
aI0
aI0
aI0
aI0
aI0
aI0
aI0
aI0
aI0
asg6
S'NYK'
p1012
sg8
g9
sg10
g16
sa(dp1013
g2
S'2006-07'
p1014
sg4
(lp1015
I3
aI1
aI3
aI0
aI0
aI0
aI0
aI0
aI0
aI0
aI0
aI0
aI0
aI0
asg6
S'DAL'
p1016
sg8
g9
sg10
g16
sa(dp1017
g2
S'2006-07'
p1018
sg4
(lp1019
I6
aI0
aI4
aI1
aI1
aI0
aI0
aI0
aI0
aI0
aI0
aI0
aI0
aI0
asg6
S'CHA'
p1020
sg8
g9
sg10
g11
sa(dp1021
g2
S'2006-07'
p1022
sg4
(lp1023
I5
aI2
aI3
aI3
aI0
aI0
aI0
aI0
aI0
aI0
aI0
aI0
aI0
aI0
asg6
S'UTA'
p1024
sg8
g9
sg10
g16
sa(dp1025
g2
S'2006-07'
p1026
sg4
(lp1027
I1
aI2
aI2
aI1
aI0
aI0
aI0
aI0
aI0
aI0
aI0
aI0
aI0
aI0
asg6
S'MEM'
p1028
sg8
g9
sg10
g11
sa(dp1029
g2
S'2006-07'
p1030
sg4
(lp1031
I3
aI0
aI1
aI1
aI0
aI0
aI0
aI0
aI0
aI0
aI0
aI0
aI0
aI0
asg6
S'IND'
p1032
sg8
g9
sg10
g16
sa(dp1033
g2
S'2006-07'
p1034
sg4
(lp1035
I2
aI0
aI2
aI0
aI0
aI0
aI0
aI0
aI0
aI0
aI0
aI0
aI0
aI0
asg6
S'MIL'
p1036
sg8
g9
sg10
g11
sa(dp1037
g2
S'2006-07'
p1038
sg4
(lp1039
I3
aI2
aI2
aI0
aI0
aI0
aI1
aI0
aI0
aI0
aI0
aI0
aI0
aI0
asg6
S'DET'
p1040
sg8
g9
sg10
g11
sa(dp1041
g2
S'2006-07'
p1042
sg4
(lp1043
I4
aI2
aI1
aI2
aI0
aI0
aI0
aI0
aI0
aI0
aI0
aI0
aI0
aI0
asg6
S'HOU'
p1044
sg8
g9
sg10
g16
sa(dp1045
g2
S'2006-07'
p1046
sg4
(lp1047
I8
aI1
aI5
aI1
aI0
aI0
aI2
aI0
aI0
aI0
aI0
aI0
aI0
aI0
asg6
S'TOR'
p1048
sg8
g9
sg10
g16
sa(dp1049
g2
S'2006-07'
p1050
sg4
(lp1051
I3
aI2
aI1
aI1
aI0
aI0
aI0
aI1
aI0
aI0
aI0
aI0
aI0
aI0
asg6
S'DAL'
p1052
sg8
g9
sg10
g11
sa(dp1053
g2
S'2006-07'
p1054
sg4
(lp1055
I3
aI1
aI1
aI2
aI0
aI0
aI0
aI0
aI0
aI0
aI0
aI0
aI0
aI0
asg6
S'NOK'
p1056
sg8
g9
sg10
g16
sa(dp1057
g2
S'2006-07'
p1058
sg4
(lp1059
I4
aI2
aI2
aI3
aI0
aI0
aI1
aI0
aI0
aI0
aI0
aI0
aI0
aI0
asg6
S'MIA'
p1060
sg8
g9
sg10
g11
sa(dp1061
g2
S'2006-07'
p1062
sg4
(lp1063
I1
aI4
aI1
aI2
aI0
aI0
aI0
aI0
aI0
aI0
aI0
aI0
aI0
aI0
asg6
S'CHI'
p1064
sg8
g9
sg10
g16
sa(dp1065
g2
S'2006-07'
p1066
sg4
(lp1067
I2
aI0
aI2
aI0
aI0
aI0
aI1
aI0
aI0
aI0
aI0
aI0
aI0
aI0
asg6
S'TOR'
p1068
sg8
g9
sg10
g11
sa(dp1069
g2
S'2006-07'
p1070
sg4
(lp1071
I10
aI0
aI7
aI2
aI0
aI0
aI1
aI2
aI0
aI0
aI0
aI0
aI0
aI0
asg6
S'LAL'
p1072
sg8
g9
sg10
g11
sa(dp1073
g2
S'2006-07'
p1074
sg4
(lp1075
I3
aI3
aI2
aI1
aI0
aI0
aI0
aI0
aI0
aI0
aI0
aI0
aI0
aI0
asg6
S'UTA'
p1076
sg8
g9
sg10
g11
sa(dp1077
g2
S'2006-07'
p1078
sg4
(lp1079
I4
aI2
aI4
aI2
aI0
aI0
aI0
aI0
aI0
aI0
aI0
aI0
aI0
aI0
asg6
S'LAL'
p1080
sg8
g9
sg10
g16
sa(dp1081
g2
S'2006-07'
p1082
sg4
(lp1083
I3
aI1
aI1
aI2
aI0
aI0
aI0
aI1
aI0
aI0
aI0
aI0
aI0
aI0
asg6
S'MIA'
p1084
sg8
g9
sg10
g16
sa(dp1085
g2
S'2006-07'
p1086
sg4
(lp1087
I1
aI0
aI1
aI0
aI0
aI0
aI0
aI0
aI0
aI0
aI0
aI0
aI0
aI0
asg6
S'LAC'
p1088
sg8
g9
sg10
g16
sa(dp1089
g2
S'2006-07'
p1090
sg4
(lp1091
I1
aI1
aI1
aI0
aI0
aI0
aI0
aI0
aI0
aI0
aI0
aI0
aI0
aI0
asg6
S'DET'
p1092
sg8
g9
sg10
g16
sa(dp1093
g2
S'2006-07'
p1094
sg4
(lp1095
I2
aI2
aI2
aI2
aI0
aI0
aI0
aI0
aI0
aI0
aI0
aI0
aI0
aI0
asg6
S'CHA'
p1096
sg8
g9
sg10
g16
sa(dp1097
g2
S'2006-07'
p1098
sg4
(lp1099
I1
aI4
aI2
aI1
aI0
aI0
aI0
aI0
aI0
aI0
aI0
aI0
aI0
aI0
asg6
S'MIA'
p1100
sg8
g9
sg10
g11
sa(dp1101
g2
S'2006-07'
p1102
sg4
(lp1103
I2
aI1
aI1
aI2
aI0
aI0
aI0
aI0
aI0
aI0
aI0
aI0
aI0
aI0
asg6
S'PHX'
p1104
sg8
g9
sg10
g16
sa(dp1105
g2
S'2006-07'
p1106
sg4
(lp1107
I3
aI4
aI5
aI1
aI0
aI0
aI0
aI0
aI0
aI0
aI0
aI0
aI0
aI0
asg6
S'PHI'
p1108
sg8
g9
sg10
g16
sa(dp1109
g2
S'2006-07'
p1110
sg4
(lp1111
I4
aI3
aI2
aI4
aI0
aI0
aI0
aI0
aI0
aI0
aI0
aI0
aI0
aI0
asg6
S'ORL'
p1112
sg8
g9
sg10
g16
sa(dp1113
g2
S'2006-07'
p1114
sg4
(lp1115
I1
aI2
aI1
aI1
aI0
aI0
aI0
aI0
aI0
aI0
aI0
aI0
aI0
aI0
asg6
S'GSW'
p1116
sg8
g9
sg10
g11
sa(dp1117
g2
S'2006-07'
p1118
sg4
(lp1119
I6
aI1
aI5
aI0
aI0
aI0
aI0
aI0
aI0
aI0
aI0
aI0
aI1
aI1
asg6
S'DEN'
p1120
sg8
g9
sg10
g11
sa(dp1121
g2
S'2006-07'
p1122
sg4
(lp1123
I3
aI4
aI3
aI3
aI0
aI0
aI0
aI0
aI0
aI0
aI0
aI0
aI0
aI0
asg6
S'POR'
p1124
sg8
g9
sg10
g11
sa(dp1125
g2
S'2006-07'
p1126
sg4
(lp1127
I6
aI2
aI7
aI0
aI0
aI0
aI0
aI0
aI0
aI0
aI0
aI0
aI0
aI0
asg6
S'SEA'
p1128
sg8
g9
sg10
g11
sa(dp1129
g2
S'2006-07'
p1130
sg4
(lp1131
I4
aI0
aI4
aI0
aI0
aI0
aI0
aI0
aI0
aI0
aI0
aI0
aI0
aI0
asg6
S'LAC'
p1132
sg8
g9
sg10
g11
sa(dp1133
g2
S'2006-07'
p1134
sg4
(lp1135
I0
aI1
aI1
aI0
aI0
aI0
aI0
aI0
aI0
aI0
aI0
aI0
aI0
aI0
asg6
S'PHX'
p1136
sg8
g9
sg10
g11
sa(dp1137
g2
S'2006-07'
p1138
sg4
(lp1139
I2
aI0
aI1
aI0
aI0
aI0
aI0
aI0
aI0
aI0
aI0
aI0
aI0
aI0
asg6
S'SAC'
p1140
sg8
g9
sg10
g11
sa(dp1141
g2
S'2006-07'
p1142
sg4
(lp1143
I0
aI0
aI0
aI0
aI0
aI0
aI0
aI0
aI0
aI0
aI0
aI0
aI0
aI0
asg6
S'NJN'
p1144
sg8
g9
sg10
g16
sa(dp1145
g2
S'2006-07'
p1146
sg4
(lp1147
I1
aI0
aI1
aI0
aI0
aI0
aI0
aI0
aI0
aI0
aI0
aI0
aI0
aI0
asg6
S'MIL'
p1148
sg8
g9
sg10
g11
sa(dp1149
g2
S'2006-07'
p1150
sg4
(lp1151
I2
aI2
aI3
aI0
aI1
aI0
aI0
aI0
aI0
aI0
aI0
aI0
aI2
aI0
asg6
S'BOS'
p1152
sg8
g9
sg10
g11
sa(dp1153
g2
S'2006-07'
p1154
sg4
(lp1155
I4
aI2
aI1
aI4
aI0
aI0
aI0
aI0
aI0
aI0
aI0
aI0
aI0
aI0
asg6
S'SAS'
p1156
sg8
g9
sg10
g16
sa(dp1157
g2
S'2006-07'
p1158
sg4
(lp1159
I0
aI2
aI0
aI1
aI0
aI0
aI0
aI0
aI0
aI0
aI0
aI0
aI0
aI0
asg6
S'CHI'
p1160
sg8
g9
sg10
g11
sa(dp1161
g2
S'2006-07'
p1162
sg4
(lp1163
I3
aI3
aI4
aI1
aI0
aI0
aI0
aI0
aI1
aI0
aI0
aI1
aI0
aI0
asg6
S'MIL'
p1164
sg8
g9
sg10
g16
sa(dp1165
g2
S'2006-07'
p1166
sg4
(lp1167
I2
aI2
aI4
aI0
aI0
aI0
aI0
aI0
aI0
aI0
aI0
aI0
aI0
aI0
asg6
S'ATL'
p1168
sg8
g9
sg10
g11
sa(dp1169
g2
S'2006-07'
p1170
sg4
(lp1171
I3
aI3
aI1
aI3
aI0
aI0
aI0
aI0
aI0
aI0
aI0
aI0
aI0
aI0
asg6
S'ORL'
p1172
sg8
g9
sg10
g16
sa(dp1173
g2
S'2006-07'
p1174
sg4
(lp1175
I4
aI0
aI4
aI0
aI0
aI0
aI0
aI0
aI0
aI0
aI0
aI0
aI0
aI0
asg6
S'DET'
p1176
sg8
g9
sg10
g16
sa(dp1177
g2
S'2006-07'
p1178
sg4
(lp1179
I8
aI3
aI8
aI2
aI0
aI0
aI0
aI0
aI0
aI0
aI0
aI0
aI0
aI0
asg6
S'NJN'
p1180
sg8
g9
sg10
g11
sa(dp1181
g2
S'2006-07'
p1182
sg4
(lp1183
I5
aI0
aI2
aI2
aI0
aI0
aI0
aI0
aI0
aI0
aI0
aI0
aI0
aI0
asg6
S'ORL'
p1184
sg8
g9
sg10
g11
sa(dp1185
g2
S'2006-07'
p1186
sg4
(lp1187
I1
aI1
aI1
aI0
aI0
aI0
aI0
aI0
aI0
aI0
aI0
aI0
aI0
aI0
asg6
S'SEA'
p1188
sg8
g9
sg10
g16
sa(dp1189
g2
S'2006-07'
p1190
sg4
(lp1191
I5
aI1
aI5
aI0
aI0
aI0
aI0
aI0
aI0
aI0
aI0
aI0
aI0
aI0
asg6
S'CHA'
p1192
sg8
g9
sg10
g16
sa(dp1193
g2
S'2006-07'
p1194
sg4
(lp1195
I1
aI0
aI0
aI0
aI0
aI0
aI0
aI0
aI0
aI0
aI0
aI0
aI0
aI0
asg6
S'NOK'
p1196
sg8
g9
sg10
g11
sa(dp1197
g2
S'2006-07'
p1198
sg4
(lp1199
I3
aI1
aI1
aI1
aI0
aI0
aI0
aI0
aI0
aI0
aI0
aI0
aI0
aI0
asg6
S'IND'
p1200
sg8
g9
sg10
g16
sa(dp1201
g2
S'2006-07'
p1202
sg4
(lp1203
I2
aI1
aI1
aI1
aI0
aI0
aI0
aI0
aI0
aI0
aI0
aI0
aI0
aI0
asg6
S'TOR'
p1204
sg8
g9
sg10
g16
sa(dp1205
g2
S'2006-07'
p1206
sg4
(lp1207
I2
aI1
aI2
aI0
aI0
aI0
aI1
aI1
aI0
aI0
aI0
aI0
aI0
aI0
asg6
S'HOU'
p1208
sg8
g9
sg10
g11
sa(dp1209
g2
S'2006-07'
p1210
sg4
(lp1211
I4
aI4
aI2
aI0
aI0
aI0
aI0
aI0
aI0
aI0
aI0
aI0
aI0
aI0
asg6
S'ATL'
p1212
sg8
g9
sg10
g11
sa(dp1213
g2
S'2006-07'
p1214
sg4
(lp1215
I4
aI3
aI2
aI0
aI0
aI0
aI1
aI1
aI0
aI0
aI0
aI0
aI0
aI0
asg6
S'NYK'
p1216
sg8
g9
sg10
g16
sa(dp1217
g2
S'2006-07'
p1218
sg4
(lp1219
I3
aI2
aI1
aI1
aI0
aI0
aI0
aI0
aI0
aI0
aI0
aI0
aI0
aI0
asg6
S'PHI'
p1220
sg8
g9
sg10
g16
sa(dp1221
g2
S'2006-07'
p1222
sg4
(lp1223
I5
aI4
aI9
aI0
aI0
aI0
aI0
aI0
aI1
aI0
aI1
aI0
aI0
aI0
asg6
S'IND'
p1224
sg8
g9
sg10
g11
sa(dp1225
g2
S'2006-07'
p1226
sg4
(lp1227
I3
aI2
aI3
aI1
aI0
aI0
aI0
aI0
aI0
aI0
aI0
aI0
aI0
aI0
asg6
S'TOR'
p1228
sg8
g9
sg10
g11
sa(dp1229
g2
S'2006-07'
p1230
sg4
(lp1231
I0
aI0
aI0
aI0
aI0
aI0
aI0
aI1
aI0
aI0
aI0
aI0
aI0
aI0
asg6
S'MEM'
p1232
sg8
g9
sg10
g16
sa(dp1233
g2
S'2006-07'
p1234
sg4
(lp1235
I3
aI0
aI1
aI1
aI0
aI0
aI0
aI0
aI0
aI0
aI0
aI0
aI0
aI0
asg6
S'WAS'
p1236
sg8
g9
sg10
g11
sa(dp1237
g2
S'2006-07'
p1238
sg4
(lp1239
I6
aI1
aI4
aI2
aI0
aI0
aI1
aI0
aI0
aI0
aI0
aI0
aI0
aI0
asg6
S'MIN'
p1240
sg8
g9
sg10
g16
sa(dp1241
g2
S'2006-07'
p1242
sg4
(lp1243
I4
aI1
aI3
aI1
aI1
aI0
aI1
aI0
aI0
aI0
aI0
aI0
aI0
aI0
asg6
S'POR'
p1244
sg8
g9
sg10
g16
sa(dp1245
g2
S'2006-07'
p1246
sg4
(lp1247
I3
aI2
aI3
aI1
aI0
aI0
aI0
aI0
aI0
aI0
aI0
aI0
aI0
aI0
asg6
S'NYK'
p1248
sg8
g9
sg10
g11
sa(dp1249
g2
S'2006-07'
p1250
sg4
(lp1251
I10
aI2
aI8
aI2
aI0
aI0
aI1
aI0
aI0
aI0
aI0
aI0
aI0
aI0
asg6
S'BOS'
p1252
sg8
g9
sg10
g16
sa(dp1253
g2
S'2006-07'
p1254
sg4
(lp1255
I4
aI0
aI2
aI0
aI0
aI0
aI1
aI1
aI0
aI0
aI0
aI0
aI0
aI0
asg6
S'CHI'
p1256
sg8
g9
sg10
g16
sa(dp1257
g2
S'2006-07'
p1258
sg4
(lp1259
I3
aI3
aI2
aI3
aI0
aI0
aI0
aI0
aI0
aI0
aI0
aI0
aI0
aI0
asg6
S'ATL'
p1260
sg8
g9
sg10
g16
sa(dp1261
g2
S'2006-07'
p1262
sg4
(lp1263
I5
aI1
aI4
aI0
aI0
aI0
aI0
aI0
aI0
aI0
aI0
aI0
aI0
aI0
asg6
S'CHA'
p1264
sg8
g9
sg10
g11
sa(dp1265
g2
S'2006-07'
p1266
sg4
(lp1267
I4
aI4
aI2
aI1
aI0
aI0
aI0
aI0
aI0
aI0
aI0
aI0
aI0
aI0
asg6
S'SAS'
p1268
sg8
g9
sg10
g11
sa(dp1269
g2
S'2006-07'
p1270
sg4
(lp1271
I0
aI3
aI2
aI1
aI0
aI0
aI0
aI0
aI0
aI0
aI0
aI0
aI0
aI0
asg6
S'WAS'
p1272
sg8
g9
sg10
g16
sa(dp1273
g2
S'2007-08'
p1274
sg4
(lp1275
I4
aI3
aI2
aI3
aI0
aI0
aI0
aI0
aI0
aI0
aI0
aI0
aI0
aI0
asg6
S'PHI'
p1276
sg8
g9
sg10
g11
sa(dp1277
g2
S'2007-08'
p1278
sg4
(lp1279
I4
aI1
aI3
aI1
aI0
aI0
aI0
aI0
aI0
aI0
aI0
aI0
aI0
aI0
asg6
S'MIA'
p1280
sg8
g9
sg10
g16
sa(dp1281
g2
S'2007-08'
p1282
sg4
(lp1283
I3
aI4
aI3
aI2
aI0
aI0
aI0
aI0
aI0
aI0
aI0
aI0
aI0
aI0
asg6
S'CHI'
p1284
sg8
g9
sg10
g11
sa(dp1285
g2
S'2007-08'
p1286
sg4
(lp1287
I5
aI1
aI4
aI1
aI0
aI0
aI0
aI0
aI1
aI0
aI0
aI1
aI0
aI0
asg6
S'NJN'
p1288
sg8
g9
sg10
g16
sa(dp1289
g2
S'2007-08'
p1290
sg4
(lp1291
I2
aI2
aI2
aI2
aI0
aI0
aI0
aI0
aI0
aI0
aI0
aI0
aI0
aI0
asg6
S'ORL'
p1292
sg8
g9
sg10
g16
sa(dp1293
g2
S'2007-08'
p1294
sg4
(lp1295
I4
aI4
aI6
aI0
aI0
aI0
aI0
aI0
aI0
aI0
aI0
aI0
aI0
aI0
asg6
S'CHI'
p1296
sg8
g9
sg10
g16
sa(dp1297
g2
S'2007-08'
p1298
sg4
(lp1299
I4
aI0
aI2
aI0
aI0
aI0
aI0
aI0
aI0
aI0
aI0
aI0
aI0
aI0
asg6
S'CHA'
p1300
sg8
g9
sg10
g11
sa(dp1301
g2
S'2007-08'
p1302
sg4
(lp1303
I2
aI0
aI1
aI0
aI0
aI0
aI0
aI0
aI0
aI0
aI0
aI0
aI0
aI0
asg6
S'PHI'
p1304
sg8
g9
sg10
g16
sa(dp1305
g2
S'2007-08'
p1306
sg4
(lp1307
I2
aI1
aI2
aI1
aI0
aI0
aI0
aI0
aI0
aI0
aI0
aI0
aI0
aI0
asg6
S'DET'
p1308
sg8
g9
sg10
g11
sa(dp1309
g2
S'2007-08'
p1310
sg4
(lp1311
I3
aI1
aI4
aI0
aI0
aI0
aI1
aI1
aI0
aI0
aI0
aI0
aI0
aI0
asg6
S'NOH'
p1312
sg8
g9
sg10
g16
sa(dp1313
g2
S'2007-08'
p1314
sg4
(lp1315
I4
aI1
aI4
aI1
aI0
aI0
aI0
aI0
aI0
aI0
aI0
aI0
aI0
aI0
asg6
S'MIL'
p1316
sg8
g9
sg10
g11
sa(dp1317
g2
S'2007-08'
p1318
sg4
(lp1319
I0
aI0
aI0
aI0
aI0
aI0
aI0
aI0
aI0
aI0
aI0
aI0
aI0
aI0
asg6
S'TOR'
p1320
sg8
g9
sg10
g16
sa(dp1321
g2
S'2007-08'
p1322
sg4
(lp1323
I3
aI1
aI3
aI0
aI0
aI0
aI0
aI0
aI0
aI0
aI0
aI0
aI0
aI0
asg6
S'DET'
p1324
sg8
g9
sg10
g16
sa(dp1325
g2
S'2007-08'
p1326
sg4
(lp1327
I4
aI2
aI3
aI2
aI0
aI0
aI0
aI0
aI0
aI0
aI0
aI0
aI0
aI0
asg6
S'ORL'
p1328
sg8
g9
sg10
g11
sa(dp1329
g2
S'2007-08'
p1330
sg4
(lp1331
I8
aI1
aI1
aI5
aI1
aI0
aI0
aI0
aI0
aI0
aI0
aI0
aI0
aI0
asg6
S'CHA'
p1332
sg8
g9
sg10
g16
sa(dp1333
g2
S'2007-08'
p1334
sg4
(lp1335
I3
aI1
aI3
aI0
aI0
aI0
aI0
aI1
aI0
aI0
aI0
aI0
aI0
aI0
asg6
S'WAS'
p1336
sg8
g9
sg10
g11
sa(dp1337
g2
S'2007-08'
p1338
sg4
(lp1339
I8
aI5
aI8
aI2
aI0
aI0
aI0
aI0
aI0
aI0
aI0
aI0
aI0
aI0
asg6
S'NJN'
p1340
sg8
g9
sg10
g11
sa(dp1341
g2
S'2007-08'
p1342
sg4
(lp1343
I4
aI3
aI5
aI1
aI0
aI0
aI0
aI0
aI0
aI0
aI0
aI0
aI0
aI0
asg6
S'POR'
p1344
sg8
g9
sg10
g16
sa(dp1345
g2
S'2007-08'
p1346
sg4
(lp1347
I6
aI0
aI5
aI1
aI0
aI0
aI0
aI0
aI0
aI0
aI0
aI0
aI0
aI0
asg6
S'IND'
p1348
sg8
g9
sg10
g16
sa(dp1349
g2
S'2007-08'
p1350
sg4
(lp1351
I6
aI1
aI4
aI0
aI0
aI0
aI1
aI0
aI0
aI0
aI0
aI0
aI0
aI0
asg6
S'CHI'
p1352
sg8
g9
sg10
g11
sa(dp1353
g2
S'2007-08'
p1354
sg4
(lp1355
I6
aI3
aI5
aI2
aI0
aI0
aI0
aI0
aI0
aI0
aI0
aI0
aI0
aI0
asg6
S'NYK'
p1356
sg8
g9
sg10
g11
sa(dp1357
g2
S'2007-08'
p1358
sg4
(lp1359
I3
aI1
aI4
aI0
aI0
aI0
aI0
aI0
aI0
aI0
aI0
aI0
aI0
aI0
asg6
S'CHI'
p1360
sg8
g9
sg10
g16
sa(dp1361
g2
S'2007-08'
p1362
sg4
(lp1363
I3
aI2
aI4
aI0
aI0
aI0
aI0
aI0
aI0
aI0
aI0
aI0
aI0
aI0
asg6
S'MIN'
p1364
sg8
g9
sg10
g16
sa(dp1365
g2
S'2007-08'
p1366
sg4
(lp1367
I5
aI2
aI5
aI2
aI1
aI0
aI0
aI0
aI0
aI0
aI0
aI0
aI0
aI0
asg6
S'BOS'
p1368
sg8
g9
sg10
g11
sa(dp1369
g2
S'2007-08'
p1370
sg4
(lp1371
I2
aI2
aI0
aI1
aI0
aI0
aI0
aI0
aI0
aI0
aI0
aI0
aI0
aI0
asg6
S'MIL'
p1372
sg8
g9
sg10
g11
sa(dp1373
g2
S'2007-08'
p1374
sg4
(lp1375
I2
aI1
aI2
aI0
aI0
aI0
aI0
aI0
aI0
aI0
aI0
aI0
aI0
aI0
asg6
S'MEM'
p1376
sg8
g9
sg10
g16
sa(dp1377
g2
S'2007-08'
p1378
sg4
(lp1379
I5
aI2
aI4
aI3
aI0
aI0
aI0
aI0
aI0
aI0
aI0
aI0
aI0
aI0
asg6
S'WAS'
p1380
sg8
g9
sg10
g16
sa(dp1381
g2
S'2007-08'
p1382
sg4
(lp1383
I4
aI1
aI2
aI1
aI0
aI0
aI2
aI2
aI0
aI0
aI0
aI0
aI0
aI0
asg6
S'IND'
p1384
sg8
g9
sg10
g11
sa(dp1385
g2
S'2007-08'
p1386
sg4
(lp1387
I5
aI0
aI3
aI1
aI0
aI0
aI0
aI2
aI0
aI0
aI0
aI0
aI0
aI0
asg6
S'HOU'
p1388
sg8
g9
sg10
g16
sa(dp1389
g2
S'2007-08'
p1390
sg4
(lp1391
I2
aI2
aI2
aI1
aI0
aI0
aI0
aI0
aI0
aI0
aI0
aI0
aI0
aI0
asg6
S'SAS'
p1392
sg8
g9
sg10
g16
sa(dp1393
g2
S'2007-08'
p1394
sg4
(lp1395
I7
aI1
aI4
aI2
aI0
aI0
aI1
aI0
aI0
aI0
aI0
aI0
aI0
aI0
asg6
S'ORL'
p1396
sg8
g9
sg10
g11
sa(dp1397
g2
S'2007-08'
p1398
sg4
(lp1399
I2
aI0
aI2
aI0
aI0
aI0
aI2
aI0
aI0
aI0
aI0
aI0
aI0
aI0
asg6
S'DEN'
p1400
sg8
g9
sg10
g16
sa(dp1401
g2
S'2007-08'
p1402
sg4
(lp1403
I2
aI0
aI2
aI0
aI0
aI0
aI0
aI0
aI0
aI0
aI0
aI0
aI0
aI0
asg6
S'ATL'
p1404
sg8
g9
sg10
g11
sa(dp1405
g2
S'2007-08'
p1406
sg4
(lp1407
I4
aI2
aI2
aI3
aI0
aI0
aI0
aI0
aI0
aI0
aI0
aI0
aI0
aI0
asg6
S'HOU'
p1408
sg8
g9
sg10
g11
sa(dp1409
g2
S'2007-08'
p1410
sg4
(lp1411
I4
aI1
aI2
aI1
aI0
aI0
aI0
aI0
aI0
aI0
aI0
aI0
aI1
aI1
asg6
S'BOS'
p1412
sg8
g9
sg10
g16
sa(dp1413
g2
S'2007-08'
p1414
sg4
(lp1415
I6
aI2
aI5
aI3
aI0
aI0
aI0
aI0
aI0
aI0
aI0
aI0
aI0
aI0
asg6
S'LAC'
p1416
sg8
g9
sg10
g16
sa(dp1417
g2
S'2007-08'
p1418
sg4
(lp1419
I4
aI2
aI4
aI2
aI0
aI0
aI0
aI0
aI0
aI0
aI0
aI0
aI0
aI0
asg6
S'POR'
p1420
sg8
g9
sg10
g11
sa(dp1421
g2
S'2007-08'
p1422
sg4
(lp1423
I6
aI1
aI2
aI3
aI0
aI0
aI0
aI0
aI0
aI0
aI0
aI0
aI0
aI0
asg6
S'LAL'
p1424
sg8
g9
sg10
g11
sa(dp1425
g2
S'2007-08'
p1426
sg4
(lp1427
I5
aI1
aI3
aI1
aI0
aI0
aI0
aI0
aI0
aI0
aI0
aI0
aI0
aI0
asg6
S'PHX'
p1428
sg8
g9
sg10
g16
sa(dp1429
g2
S'2007-08'
p1430
sg4
(lp1431
I5
aI0
aI3
aI1
aI0
aI0
aI0
aI0
aI0
aI0
aI0
aI0
aI0
aI0
asg6
S'WAS'
p1432
sg8
g9
sg10
g16
sa(dp1433
g2
S'2007-08'
p1434
sg4
(lp1435
I2
aI0
aI2
aI0
aI0
aI0
aI1
aI0
aI0
aI0
aI0
aI0
aI0
aI0
asg6
S'MIA'
p1436
sg8
g9
sg10
g11
sa(dp1437
g2
S'2007-08'
p1438
sg4
(lp1439
I3
aI3
aI5
aI1
aI0
aI0
aI0
aI0
aI0
aI0
aI0
aI0
aI0
aI0
asg6
S'SAS'
p1440
sg8
g9
sg10
g11
sa(dp1441
g2
S'2007-08'
p1442
sg4
(lp1443
I5
aI4
aI4
aI3
aI0
aI0
aI0
aI0
aI0
aI0
aI0
aI0
aI0
aI0
asg6
S'MEM'
p1444
sg8
g9
sg10
g11
sa(dp1445
g2
S'2007-08'
p1446
sg4
(lp1447
I7
aI1
aI2
aI5
aI0
aI0
aI0
aI0
aI0
aI0
aI0
aI0
aI0
aI0
asg6
S'CHA'
p1448
sg8
g9
sg10
g16
sa(dp1449
g2
S'2007-08'
p1450
sg4
(lp1451
I3
aI3
aI2
aI1
aI0
aI0
aI0
aI0
aI0
aI0
aI0
aI0
aI0
aI0
asg6
S'ATL'
p1452
sg8
g9
sg10
g11
sa(dp1453
g2
S'2007-08'
p1454
sg4
(lp1455
I3
aI0
aI3
aI0
aI0
aI0
aI0
aI0
aI0
aI0
aI0
aI0
aI0
aI0
asg6
S'SEA'
p1456
sg8
g9
sg10
g16
sa(dp1457
g2
S'2007-08'
p1458
sg4
(lp1459
I3
aI4
aI4
aI1
aI0
aI0
aI0
aI0
aI0
aI0
aI0
aI0
aI0
aI0
asg6
S'TOR'
p1460
sg8
g9
sg10
g11
sa(dp1461
g2
S'2007-08'
p1462
sg4
(lp1463
I4
aI3
aI5
aI0
aI0
aI0
aI0
aI0
aI0
aI0
aI0
aI0
aI0
aI0
asg6
S'SAC'
p1464
sg8
g9
sg10
g16
sa(dp1465
g2
S'2007-08'
p1466
sg4
(lp1467
I5
aI2
aI4
aI0
aI0
aI0
aI0
aI0
aI0
aI0
aI0
aI0
aI0
aI0
asg6
S'ATL'
p1468
sg8
g9
sg10
g16
sa(dp1469
g2
S'2007-08'
p1470
sg4
(lp1471
I1
aI2
aI3
aI0
aI0
aI0
aI0
aI0
aI0
aI0
aI0
aI0
aI0
aI0
asg6
S'NOH'
p1472
sg8
g9
sg10
g11
sa(dp1473
g2
S'2007-08'
p1474
sg4
(lp1475
I2
aI3
aI3
aI2
aI0
aI0
aI0
aI0
aI0
aI0
aI0
aI0
aI0
aI0
asg6
S'DAL'
p1476
sg8
g9
sg10
g11
sa(dp1477
g2
S'2007-08'
p1478
sg4
(lp1479
I3
aI3
aI4
aI1
aI0
aI0
aI0
aI0
aI0
aI0
aI0
aI0
aI0
aI0
asg6
S'MIA'
p1480
sg8
g9
sg10
g16
sa(dp1481
g2
S'2007-08'
p1482
sg4
(lp1483
I5
aI2
aI4
aI2
aI0
aI0
aI0
aI0
aI0
aI0
aI0
aI0
aI0
aI0
asg6
S'GSW'
p1484
sg8
g9
sg10
g16
sa(dp1485
g2
S'2007-08'
p1486
sg4
(lp1487
I4
aI2
aI5
aI0
aI0
aI0
aI0
aI0
aI0
aI0
aI0
aI0
aI0
aI0
asg6
S'LAL'
p1488
sg8
g9
sg10
g16
sa(dp1489
g2
S'2007-08'
p1490
sg4
(lp1491
I3
aI1
aI2
aI0
aI0
aI0
aI0
aI0
aI0
aI0
aI0
aI0
aI0
aI0
asg6
S'NYK'
p1492
sg8
g9
sg10
g11
sa(dp1493
g2
S'2007-08'
p1494
sg4
(lp1495
I6
aI1
aI5
aI1
aI0
aI0
aI0
aI0
aI0
aI0
aI0
aI0
aI0
aI0
asg6
S'MIL'
p1496
sg8
g9
sg10
g16
sa(dp1497
g2
S'2007-08'
p1498
sg4
(lp1499
I1
aI0
aI0
aI0
aI0
aI0
aI0
aI0
aI0
aI0
aI0
aI0
aI0
aI0
asg6
S'PHI'
p1500
sg8
g9
sg10
g16
sa(dp1501
g2
S'2007-08'
p1502
sg4
(lp1503
I2
aI0
aI0
aI0
aI0
aI0
aI0
aI1
aI0
aI0
aI0
aI0
aI0
aI0
asg6
S'NJN'
p1504
sg8
g9
sg10
g11
sa(dp1505
g2
S'2007-08'
p1506
sg4
(lp1507
I5
aI0
aI1
aI3
aI0
aI0
aI1
aI0
aI0
aI0
aI0
aI0
aI0
aI0
asg6
S'IND'
p1508
sg8
g9
sg10
g16
sa(dp1509
g2
S'2007-08'
p1510
sg4
(lp1511
I2
aI3
aI3
aI1
aI0
aI0
aI0
aI0
aI0
aI0
aI0
aI0
aI0
aI0
asg6
S'DET'
p1512
sg8
g9
sg10
g11
sa(dp1513
g2
S'2007-08'
p1514
sg4
(lp1515
I7
aI1
aI7
aI0
aI0
aI0
aI0
aI0
aI0
aI0
aI0
aI0
aI0
aI0
asg6
S'BOS'
p1516
sg8
g9
sg10
g16
sa(dp1517
g2
S'2007-08'
p1518
sg4
(lp1519
I5
aI3
aI4
aI2
aI0
aI0
aI0
aI1
aI0
aI0
aI0
aI0
aI0
aI0
asg6
S'IND'
p1520
sg8
g9
sg10
g11
sa(dp1521
g2
S'2007-08'
p1522
sg4
(lp1523
I4
aI1
aI3
aI0
aI0
aI0
aI0
aI0
aI0
aI0
aI0
aI0
aI0
aI0
asg6
S'TOR'
p1524
sg8
g9
sg10
g16
sa(dp1525
g2
S'2007-08'
p1526
sg4
(lp1527
I2
aI3
aI3
aI0
aI0
aI0
aI0
aI0
aI0
aI0
aI0
aI0
aI0
aI0
asg6
S'MIN'
p1528
sg8
g9
sg10
g11
sa(dp1529
g2
S'2007-08'
p1530
sg4
(lp1531
I6
aI0
aI3
aI1
aI0
aI0
aI2
aI0
aI0
aI0
aI0
aI0
aI0
aI0
asg6
S'MIL'
p1532
sg8
g9
sg10
g16
sa(dp1533
g2
S'2007-08'
p1534
sg4
(lp1535
I7
aI2
aI6
aI0
aI0
aI0
aI0
aI0
aI0
aI0
aI0
aI0
aI0
aI0
asg6
S'UTA'
p1536
sg8
g9
sg10
g16
sa(dp1537
g2
S'2007-08'
p1538
sg4
(lp1539
I4
aI1
aI2
aI1
aI1
aI0
aI0
aI0
aI0
aI0
aI0
aI0
aI0
aI0
asg6
S'ORL'
p1540
sg8
g9
sg10
g16
sa(dp1541
g2
S'2007-08'
p1542
sg4
(lp1543
I5
aI3
aI3
aI3
aI0
aI0
aI0
aI0
aI0
aI0
aI0
aI0
aI0
aI0
asg6
S'DEN'
p1544
sg8
g9
sg10
g11
sa(dp1545
g2
S'2007-08'
p1546
sg4
(lp1547
I3
aI1
aI1
aI3
aI0
aI0
aI0
aI0
aI0
aI0
aI0
aI0
aI0
aI0
asg6
S'LAC'
p1548
sg8
g9
sg10
g11
sa(dp1549
g2
S'2007-08'
p1550
sg4
(lp1551
I4
aI1
aI2
aI1
aI0
aI0
aI0
aI0
aI0
aI0
aI0
aI0
aI0
aI0
asg6
S'SAC'
p1552
sg8
g9
sg10
g11
sa(dp1553
g2
S'2007-08'
p1554
sg4
(lp1555
I4
aI4
aI3
aI4
aI0
aI0
aI0
aI0
aI0
aI0
aI0
aI0
aI0
aI0
asg6
S'UTA'
p1556
sg8
g9
sg10
g11
sa(dp1557
g2
S'2007-08'
p1558
sg4
(lp1559
I3
aI1
aI2
aI1
aI0
aI0
aI0
aI0
aI0
aI0
aI0
aI0
aI0
aI0
asg6
S'GSW'
p1560
sg8
g9
sg10
g11
sa(dp1561
g2
S'2007-08'
p1562
sg4
(lp1563
I1
aI0
aI1
aI0
aI0
aI0
aI0
aI0
aI0
aI0
aI0
aI0
aI0
aI0
asg6
S'PHX'
p1564
sg8
g9
sg10
g11
sa(dp1565
g2
S'2007-08'
p1566
sg4
(lp1567
I8
aI4
aI8
aI2
aI0
aI0
aI0
aI0
aI0
aI0
aI0
aI0
aI0
aI0
asg6
S'NYK'
p1568
sg8
g9
sg10
g16
sa(dp1569
g2
S'2007-08'
p1570
sg4
(lp1571
I3
aI1
aI2
aI2
aI0
aI0
aI0
aI0
aI0
aI0
aI0
aI0
aI1
aI1
asg6
S'DAL'
p1572
sg8
g9
sg10
g16
sa(dp1573
g2
S'2008-09'
p1574
sg4
(lp1575
I5
aI3
aI6
aI0
aI0
aI0
aI0
aI0
aI0
aI0
aI0
aI0
aI0
aI0
asg6
S'IND'
p1576
sg8
g9
sg10
g11
sa(dp1577
g2
S'2008-09'
p1578
sg4
(lp1579
I4
aI0
aI2
aI0
aI0
aI0
aI0
aI0
aI0
aI0
aI0
aI0
aI0
aI0
asg6
S'BOS'
p1580
sg8
g9
sg10
g16
sa(dp1581
g2
S'2008-09'
p1582
sg4
(lp1583
I5
aI1
aI5
aI1
aI0
aI0
aI0
aI0
aI0
aI0
aI0
aI0
aI0
aI0
asg6
S'PHI'
p1584
sg8
g9
sg10
g11
sa(dp1585
g2
S'2008-09'
p1586
sg4
(lp1587
I4
aI1
aI3
aI0
aI0
aI0
aI0
aI0
aI0
aI0
aI0
aI0
aI0
aI0
asg6
S'WAS'
p1588
sg8
g9
sg10
g16
sa(dp1589
g2
S'2008-09'
p1590
sg4
(lp1591
I4
aI0
aI4
aI0
aI0
aI0
aI0
aI0
aI0
aI0
aI0
aI0
aI0
aI0
asg6
S'SAS'
p1592
sg8
g9
sg10
g16
sa(dp1593
g2
S'2008-09'
p1594
sg4
(lp1595
I5
aI0
aI5
aI0
aI0
aI0
aI0
aI0
aI0
aI0
aI0
aI0
aI0
aI0
asg6
S'ORL'
p1596
sg8
g9
sg10
g11
sa(dp1597
g2
S'2008-09'
p1598
sg4
(lp1599
I4
aI0
aI1
aI2
aI0
aI0
aI0
aI0
aI0
aI0
aI0
aI0
aI0
aI0
asg6
S'WAS'
p1600
sg8
g9
sg10
g11
sa(dp1601
g2
S'2008-09'
p1602
sg4
(lp1603
I4
aI1
aI2
aI0
aI0
aI0
aI1
aI0
aI0
aI0
aI0
aI0
aI0
aI0
asg6
S'DET'
p1604
sg8
g9
sg10
g16
sa(dp1605
g2
S'2008-09'
p1606
sg4
(lp1607
I2
aI1
aI2
aI0
aI0
aI0
aI0
aI0
aI0
aI0
aI0
aI0
aI0
aI0
asg6
S'DAL'
p1608
sg8
g9
sg10
g16
sa(dp1609
g2
S'2008-09'
p1610
sg4
(lp1611
I4
aI0
aI1
aI2
aI0
aI0
aI1
aI0
aI1
aI0
aI0
aI1
aI0
aI0
asg6
S'MIN'
p1612
sg8
g9
sg10
g16
sa(dp1613
g2
S'2008-09'
p1614
sg4
(lp1615
I4
aI0
aI3
aI0
aI0
aI0
aI0
aI0
aI0
aI0
aI0
aI0
aI0
aI0
asg6
S'NJN'
p1616
sg8
g9
sg10
g16
sa(dp1617
g2
S'2008-09'
p1618
sg4
(lp1619
I6
aI2
aI5
aI2
aI0
aI0
aI0
aI0
aI0
aI0
aI0
aI0
aI0
aI0
asg6
S'NJN'
p1620
sg8
g9
sg10
g11
sa(dp1621
g2
S'2008-09'
p1622
sg4
(lp1623
I3
aI0
aI0
aI2
aI0
aI0
aI0
aI0
aI0
aI0
aI0
aI0
aI0
aI0
asg6
S'ATL'
p1624
sg8
g9
sg10
g16
sa(dp1625
g2
S'2008-09'
p1626
sg4
(lp1627
I3
aI3
aI3
aI2
aI0
aI0
aI0
aI0
aI0
aI0
aI0
aI0
aI0
aI0
asg6
S'POR'
p1628
sg8
g9
sg10
g16
sa(dp1629
g2
S'2008-09'
p1630
sg4
(lp1631
I5
aI0
aI3
aI1
aI1
aI0
aI0
aI0
aI0
aI0
aI0
aI0
aI0
aI0
asg6
S'ORL'
p1632
sg8
g9
sg10
g16
sa(dp1633
g2
S'2008-09'
p1634
sg4
(lp1635
I1
aI1
aI0
aI1
aI0
aI0
aI0
aI0
aI0
aI0
aI0
aI0
aI0
aI0
asg6
S'NYK'
p1636
sg8
g9
sg10
g16
sa(dp1637
g2
S'2008-09'
p1638
sg4
(lp1639
I9
aI1
aI4
aI1
aI0
aI0
aI0
aI0
aI0
aI0
aI0
aI0
aI2
aI0
asg6
S'SAC'
p1640
sg8
g9
sg10
g11
sa(dp1641
g2
S'2008-09'
p1642
sg4
(lp1643
I6
aI1
aI5
aI1
aI0
aI0
aI0
aI0
aI0
aI0
aI0
aI0
aI0
aI0
asg6
S'PHX'
p1644
sg8
g9
sg10
g11
sa(dp1645
g2
S'2008-09'
p1646
sg4
(lp1647
I7
aI2
aI5
aI2
aI0
aI0
aI0
aI0
aI0
aI0
aI0
aI0
aI0
aI0
asg6
S'LAC'
p1648
sg8
g9
sg10
g11
sa(dp1649
g2
S'2008-09'
p1650
sg4
(lp1651
I2
aI2
aI2
aI1
aI0
aI0
aI0
aI0
aI0
aI0
aI0
aI0
aI0
aI0
asg6
S'MIA'
p1652
sg8
g9
sg10
g16
sa(dp1653
g2
S'2008-09'
p1654
sg4
(lp1655
I4
aI2
aI5
aI1
aI0
aI0
aI0
aI0
aI0
aI0
aI0
aI0
aI0
aI0
asg6
S'BOS'
p1656
sg8
g9
sg10
g11
sa(dp1657
g2
S'2008-09'
p1658
sg4
(lp1659
I3
aI1
aI2
aI1
aI0
aI0
aI0
aI0
aI0
aI0
aI0
aI0
aI0
aI0
asg6
S'MIL'
p1660
sg8
g9
sg10
g16
sa(dp1661
g2
S'2008-09'
p1662
sg4
(lp1663
I4
aI0
aI4
aI0
aI2
aI0
aI0
aI0
aI0
aI0
aI0
aI0
aI0
aI0
asg6
S'MIA'
p1664
sg8
g9
sg10
g11
sa(dp1665
g2
S'2008-09'
p1666
sg4
(lp1667
I4
aI4
aI4
aI2
aI0
aI0
aI0
aI0
aI0
aI0
aI0
aI0
aI0
aI0
asg6
S'ATL'
p1668
sg8
g9
sg10
g11
sa(dp1669
g2
S'2008-09'
p1670
sg4
(lp1671
I1
aI0
aI0
aI0
aI0
aI0
aI0
aI0
aI0
aI0
aI0
aI0
aI2
aI0
asg6
S'SAS'
p1672
sg8
g9
sg10
g11
sa(dp1673
g2
S'2008-09'
p1674
sg4
(lp1675
I3
aI0
aI2
aI1
aI0
aI0
aI0
aI0
aI0
aI0
aI0
aI0
aI0
aI0
asg6
S'HOU'
p1676
sg8
g9
sg10
g11
sa(dp1677
g2
S'2008-09'
p1678
sg4
(lp1679
I2
aI2
aI4
aI0
aI0
aI0
aI0
aI0
aI0
aI0
aI0
aI0
aI0
aI0
asg6
S'MEM'
p1680
sg8
g9
sg10
g16
sa(dp1681
g2
S'2008-09'
p1682
sg4
(lp1683
I4
aI2
aI4
aI0
aI0
aI0
aI0
aI0
aI0
aI0
aI0
aI0
aI0
aI0
asg6
S'DET'
p1684
sg8
g9
sg10
g16
sa(dp1685
g2
S'2008-09'
p1686
sg4
(lp1687
I8
aI4
aI7
aI3
aI0
aI0
aI0
aI0
aI0
aI0
aI0
aI0
aI0
aI0
asg6
S'MIL'
p1688
sg8
g9
sg10
g11
sa(dp1689
g2
S'2008-09'
p1690
sg4
(lp1691
I1
aI0
aI1
aI0
aI0
aI0
aI0
aI0
aI0
aI0
aI0
aI0
aI0
aI0
asg6
S'TOR'
p1692
sg8
g9
sg10
g11
sa(dp1693
g2
S'2008-09'
p1694
sg4
(lp1695
I5
aI0
aI2
aI1
aI0
aI0
aI0
aI0
aI0
aI0
aI0
aI0
aI0
aI0
asg6
S'PHX'
p1696
sg8
g9
sg10
g16
sa(dp1697
g2
S'2008-09'
p1698
sg4
(lp1699
I7
aI1
aI6
aI0
aI0
aI0
aI0
aI0
aI0
aI0
aI0
aI0
aI0
aI0
asg6
S'IND'
p1700
sg8
g9
sg10
g11
sa(dp1701
g2
S'2008-09'
p1702
sg4
(lp1703
I2
aI2
aI2
aI2
aI0
aI0
aI0
aI0
aI0
aI0
aI0
aI0
aI0
aI0
asg6
S'LAL'
p1704
sg8
g9
sg10
g16
sa(dp1705
g2
S'2008-09'
p1706
sg4
(lp1707
I8
aI2
aI8
aI1
aI0
aI0
aI0
aI0
aI0
aI0
aI0
aI0
aI0
aI0
asg6
S'NYK'
p1708
sg8
g9
sg10
g11
sa(dp1709
g2
S'2008-09'
p1710
sg4
(lp1711
I8
aI0
aI5
aI0
aI0
aI0
aI0
aI0
aI0
aI0
aI0
aI0
aI0
aI0
asg6
S'TOR'
p1712
sg8
g9
sg10
g16
sa(dp1713
g2
S'2008-09'
p1714
sg4
(lp1715
I6
aI0
aI0
aI5
aI0
aI0
aI0
aI0
aI0
aI0
aI0
aI0
aI0
aI0
asg6
S'DET'
p1716
sg8
g9
sg10
g11
sa(dp1717
g2
S'2008-09'
p1718
sg4
(lp1719
I3
aI1
aI2
aI0
aI0
aI0
aI0
aI0
aI0
aI0
aI0
aI0
aI0
aI0
asg6
S'LAC'
p1720
sg8
g9
sg10
g16
sa(dp1721
g2
S'2008-09'
p1722
sg4
(lp1723
I2
aI1
aI1
aI2
aI0
aI0
aI0
aI0
aI0
aI0
aI0
aI0
aI0
aI0
asg6
S'ORL'
p1724
sg8
g9
sg10
g11
sa(dp1725
g2
S'2008-09'
p1726
sg4
(lp1727
I6
aI2
aI7
aI0
aI0
aI0
aI0
aI0
aI0
aI0
aI0
aI0
aI0
aI0
asg6
S'SAC'
p1728
sg8
g9
sg10
g16
sa(dp1729
g2
S'2008-09'
p1730
sg4
(lp1731
I2
aI2
aI2
aI0
aI0
aI0
aI0
aI0
aI0
aI0
aI0
aI0
aI0
aI0
asg6
S'UTA'
p1732
sg8
g9
sg10
g11
sa(dp1733
g2
S'2008-09'
p1734
sg4
(lp1735
I5
aI4
aI5
aI2
aI0
aI0
aI0
aI0
aI0
aI0
aI0
aI0
aI0
aI0
asg6
S'GSW'
p1736
sg8
g9
sg10
g11
sa(dp1737
g2
S'2008-09'
p1738
sg4
(lp1739
I2
aI0
aI1
aI1
aI0
aI0
aI0
aI0
aI0
aI0
aI0
aI0
aI0
aI0
asg6
S'POR'
p1740
sg8
g9
sg10
g11
sa(dp1741
g2
S'2008-09'
p1742
sg4
(lp1743
I0
aI4
aI4
aI0
aI0
aI0
aI0
aI0
aI0
aI0
aI0
aI0
aI0
aI0
asg6
S'LAL'
p1744
sg8
g9
sg10
g11
sa(dp1745
g2
S'2008-09'
p1746
sg4
(lp1747
I3
aI0
aI2
aI1
aI0
aI0
aI0
aI0
aI0
aI0
aI0
aI0
aI0
aI0
asg6
S'NOH'
p1748
sg8
g9
sg10
g16
sa(dp1749
g2
S'2008-09'
p1750
sg4
(lp1751
I5
aI4
aI6
aI1
aI0
aI0
aI0
aI0
aI0
aI0
aI0
aI0
aI0
aI0
asg6
S'CHI'
p1752
sg8
g9
sg10
g11
sa(dp1753
g2
S'2008-09'
p1754
sg4
(lp1755
I5
aI3
aI6
aI0
aI0
aI0
aI0
aI0
aI0
aI0
aI0
aI0
aI0
aI0
asg6
S'MEM'
p1756
sg8
g9
sg10
g11
sa(dp1757
g2
S'2008-09'
p1758
sg4
(lp1759
I6
aI0
aI3
aI0
aI0
aI0
aI0
aI0
aI0
aI0
aI0
aI0
aI0
aI0
asg6
S'BOS'
p1760
sg8
g9
sg10
g16
sa(dp1761
g2
S'2008-09'
p1762
sg4
(lp1763
I2
aI0
aI1
aI0
aI0
aI0
aI0
aI0
aI0
aI0
aI0
aI0
aI0
aI0
asg6
S'CHA'
p1764
sg8
g9
sg10
g16
sa(dp1765
g2
S'2008-09'
p1766
sg4
(lp1767
I3
aI3
aI2
aI0
aI0
aI0
aI0
aI0
aI0
aI0
aI0
aI0
aI0
aI0
asg6
S'WAS'
p1768
sg8
g9
sg10
g11
sa(dp1769
g2
S'2008-09'
p1770
sg4
(lp1771
I4
aI0
aI4
aI0
aI0
aI0
aI0
aI0
aI0
aI0
aI0
aI0
aI0
aI0
asg6
S'CHI'
p1772
sg8
g9
sg10
g16
sa(dp1773
g2
S'2008-09'
p1774
sg4
(lp1775
I7
aI1
aI4
aI2
aI0
aI0
aI0
aI0
aI0
aI0
aI0
aI0
aI0
aI0
asg6
S'MIA'
p1776
sg8
g9
sg10
g11
sa(dp1777
g2
S'2008-09'
p1778
sg4
(lp1779
I3
aI4
aI4
aI1
aI0
aI0
aI0
aI0
aI0
aI0
aI0
aI0
aI0
aI0
asg6
S'MIA'
p1780
sg8
g9
sg10
g16
sa(dp1781
g2
S'2008-09'
p1782
sg4
(lp1783
I3
aI3
aI2
aI1
aI1
aI0
aI0
aI0
aI0
aI0
aI0
aI0
aI0
aI0
asg6
S'WAS'
p1784
sg8
g9
sg10
g16
sa(dp1785
g2
S'2008-09'
p1786
sg4
(lp1787
I3
aI1
aI2
aI1
aI0
aI0
aI0
aI0
aI0
aI0
aI0
aI0
aI0
aI0
asg6
S'HOU'
p1788
sg8
g9
sg10
g16
sa(dp1789
g2
S'2008-09'
p1790
sg4
(lp1791
I1
aI1
aI0
aI0
aI0
aI0
aI0
aI0
aI0
aI0
aI0
aI0
aI0
aI0
asg6
S'OKC'
p1792
sg8
g9
sg10
g11
sa(dp1793
g2
S'2008-09'
p1794
sg4
(lp1795
I5
aI0
aI2
aI1
aI0
aI0
aI0
aI0
aI0
aI0
aI0
aI0
aI0
aI0
asg6
S'DEN'
p1796
sg8
g9
sg10
g11
sa(dp1797
g2
S'2008-09'
p1798
sg4
(lp1799
I1
aI2
aI1
aI0
aI0
aI0
aI0
aI0
aI0
aI0
aI0
aI0
aI0
aI0
asg6
S'MIN'
p1800
sg8
g9
sg10
g11
sa(dp1801
g2
S'2008-09'
p1802
sg4
(lp1803
I6
aI1
aI5
aI0
aI0
aI0
aI0
aI0
aI0
aI0
aI0
aI0
aI0
aI0
asg6
S'ATL'
p1804
sg8
g9
sg10
g11
sa(dp1805
g2
S'2008-09'
p1806
sg4
(lp1807
I4
aI2
aI5
aI1
aI0
aI0
aI0
aI0
aI0
aI0
aI0
aI0
aI0
aI0
asg6
S'PHI'
p1808
sg8
g9
sg10
g16
sa(dp1809
g2
S'2008-09'
p1810
sg4
(lp1811
I5
aI0
aI2
aI1
aI0
aI0
aI0
aI0
aI0
aI0
aI0
aI0
aI0
aI0
asg6
S'PHI'
p1812
sg8
g9
sg10
g11
sa(dp1813
g2
S'2008-09'
p1814
sg4
(lp1815
I3
aI1
aI4
aI0
aI0
aI0
aI0
aI0
aI0
aI0
aI0
aI0
aI0
aI0
asg6
S'TOR'
p1816
sg8
g9
sg10
g16
sa(dp1817
g2
S'2008-09'
p1818
sg4
(lp1819
I3
aI1
aI4
aI0
aI0
aI0
aI0
aI0
aI0
aI0
aI0
aI0
aI0
aI0
asg6
S'CHA'
p1820
sg8
g9
sg10
g11
sa(dp1821
g2
S'2008-09'
p1822
sg4
(lp1823
I1
aI1
aI2
aI0
aI0
aI0
aI0
aI0
aI0
aI0
aI0
aI0
aI0
aI0
asg6
S'IND'
p1824
sg8
g9
sg10
g16
sa(dp1825
g2
S'2008-09'
p1826
sg4
(lp1827
I4
aI0
aI4
aI0
aI0
aI0
aI0
aI0
aI1
aI0
aI1
aI0
aI0
aI0
asg6
S'NYK'
p1828
sg8
g9
sg10
g16
sa(dp1829
g2
S'2008-09'
p1830
sg4
(lp1831
I4
aI2
aI3
aI1
aI0
aI0
aI0
aI0
aI0
aI0
aI0
aI0
aI0
aI0
asg6
S'MIL'
p1832
sg8
g9
sg10
g11
sa(dp1833
g2
S'2008-09'
p1834
sg4
(lp1835
I0
aI2
aI2
aI0
aI0
aI0
aI0
aI0
aI0
aI0
aI0
aI0
aI0
aI0
asg6
S'GSW'
p1836
sg8
g9
sg10
g16
sa(dp1837
g2
S'2008-09'
p1838
sg4
(lp1839
I0
aI0
aI0
aI0
aI0
aI0
aI0
aI0
aI0
aI0
aI0
aI0
aI0
aI0
asg6
S'OKC'
p1840
sg8
g9
sg10
g16
sa(dp1841
g2
S'2008-09'
p1842
sg4
(lp1843
I4
aI1
aI5
aI0
aI0
aI0
aI0
aI1
aI0
aI0
aI0
aI0
aI0
aI0
asg6
S'NYK'
p1844
sg8
g9
sg10
g11
sa(dp1845
g2
S'2008-09'
p1846
sg4
(lp1847
I4
aI0
aI3
aI0
aI0
aI0
aI0
aI0
aI0
aI0
aI0
aI0
aI0
aI0
asg6
S'ATL'
p1848
sg8
g9
sg10
g16
sa(dp1849
g2
S'2008-09'
p1850
sg4
(lp1851
I4
aI1
aI5
aI0
aI0
aI0
aI0
aI0
aI0
aI0
aI0
aI0
aI0
aI0
asg6
S'DET'
p1852
sg8
g9
sg10
g11
sa(dp1853
g2
S'2008-09'
p1854
sg4
(lp1855
I6
aI3
aI6
aI1
aI0
aI0
aI0
aI1
aI0
aI0
aI0
aI0
aI0
aI0
asg6
S'NJN'
p1856
sg8
g9
sg10
g11
sa(dp1857
g2
S'2008-09'
p1858
sg4
(lp1859
I5
aI1
aI4
aI1
aI0
aI0
aI0
aI0
aI0
aI0
aI0
aI0
aI0
aI0
asg6
S'UTA'
p1860
sg8
g9
sg10
g16
sa(dp1861
g2
S'2008-09'
p1862
sg4
(lp1863
I1
aI2
aI1
aI0
aI0
aI0
aI0
aI0
aI0
aI0
aI0
aI0
aI0
aI0
asg6
S'DEN'
p1864
sg8
g9
sg10
g16
sa(dp1865
g2
S'2008-09'
p1866
sg4
(lp1867
I4
aI1
aI4
aI1
aI0
aI0
aI0
aI0
aI0
aI0
aI0
aI0
aI0
aI0
asg6
S'MIL'
p1868
sg8
g9
sg10
g16
sa(dp1869
g2
S'2008-09'
p1870
sg4
(lp1871
I5
aI2
aI6
aI0
aI0
aI0
aI0
aI0
aI0
aI0
aI0
aI0
aI0
aI0
asg6
S'CHI'
p1872
sg8
g9
sg10
g11
sa(dp1873
g2
S'2008-09'
p1874
sg4
(lp1875
I3
aI2
aI1
aI1
aI0
aI0
aI0
aI0
aI0
aI0
aI0
aI0
aI0
aI0
asg6
S'IND'
p1876
sg8
g9
sg10
g16
sa(dp1877
g2
S'2008-09'
p1878
sg4
(lp1879
I9
aI0
aI6
aI1
aI0
aI0
aI0
aI0
aI0
aI0
aI0
aI0
aI0
aI0
asg6
S'CHI'
p1880
sg8
g9
sg10
g16
sa(dp1881
g2
S'2008-09'
p1882
sg4
(lp1883
I7
aI1
aI6
aI1
aI0
aI0
aI0
aI0
aI0
aI0
aI0
aI0
aI0
aI0
asg6
S'DAL'
p1884
sg8
g9
sg10
g11
sa(dp1885
g2
S'2008-09'
p1886
sg4
(lp1887
I1
aI1
aI2
aI0
aI0
aI0
aI0
aI0
aI0
aI0
aI0
aI0
aI0
aI0
asg6
S'NOH'
p1888
sg8
g9
sg10
g11
sa(dp1889
g2
S'2008-09'
p1890
sg4
(lp1891
I4
aI3
aI4
aI1
aI0
aI0
aI0
aI0
aI0
aI0
aI0
aI0
aI0
aI0
asg6
S'CHA'
p1892
sg8
g9
sg10
g16
sa(dp1893
g2
S'2008-09'
p1894
sg4
(lp1895
I1
aI3
aI3
aI1
aI0
aI0
aI0
aI0
aI0
aI0
aI0
aI0
aI0
aI0
asg6
S'BOS'
p1896
sg8
g9
sg10
g11
sa(dp1897
g2
S'2009-10'
p1898
sg4
(lp1899
I4
aI1
aI5
aI0
aI0
aI0
aI0
aI0
aI0
aI0
aI0
aI0
aI0
aI0
asg6
S'TOR'
p1900
sg8
g9
sg10
g16
sa(dp1901
g2
S'2009-10'
p1902
sg4
(lp1903
I6
aI5
aI7
aI2
aI0
aI1
aI1
aI0
aI0
aI0
aI0
aI0
aI0
aI0
asg6
S'BOS'
p1904
sg8
g9
sg10
g11
sa(dp1905
g2
S'2009-10'
p1906
sg4
(lp1907
I1
aI3
aI3
aI0
aI0
aI0
aI0
aI0
aI0
aI0
aI0
aI0
aI0
aI0
asg6
S'ATL'
p1908
sg8
g9
sg10
g16
sa(dp1909
g2
S'2009-10'
p1910
sg4
(lp1911
I6
aI1
aI3
aI3
aI0
aI0
aI0
aI0
aI0
aI0
aI0
aI0
aI0
aI0
asg6
S'MIL'
p1912
sg8
g9
sg10
g16
sa(dp1913
g2
S'2009-10'
p1914
sg4
(lp1915
I2
aI1
aI3
aI0
aI0
aI0
aI0
aI0
aI0
aI0
aI0
aI0
aI0
aI0
asg6
S'SAC'
p1916
sg8
g9
sg10
g16
sa(dp1917
g2
S'2009-10'
p1918
sg4
(lp1919
I3
aI1
aI1
aI2
aI0
aI0
aI0
aI0
aI0
aI0
aI0
aI0
aI0
aI0
asg6
S'SAS'
p1920
sg8
g9
sg10
g11
sa(dp1921
g2
S'2009-10'
p1922
sg4
(lp1923
I3
aI1
aI4
aI0
aI0
aI0
aI0
aI0
aI0
aI0
aI0
aI0
aI0
aI0
asg6
S'NOH'
p1924
sg8
g9
sg10
g11
sa(dp1925
g2
S'2009-10'
p1926
sg4
(lp1927
I2
aI0
aI1
aI0
aI0
aI0
aI0
aI0
aI0
aI0
aI0
aI0
aI0
aI0
asg6
S'DET'
p1928
sg8
g9
sg10
g16
sa(dp1929
g2
S'2009-10'
p1930
sg4
(lp1931
I6
aI1
aI5
aI0
aI0
aI0
aI0
aI0
aI0
aI0
aI0
aI0
aI0
aI0
asg6
S'CHI'
p1932
sg8
g9
sg10
g11
sa(dp1933
g2
S'2009-10'
p1934
sg4
(lp1935
I4
aI1
aI3
aI1
aI0
aI0
aI1
aI0
aI0
aI0
aI0
aI0
aI0
aI0
asg6
S'IND'
p1936
sg8
g9
sg10
g16
sa(dp1937
g2
S'2009-10'
p1938
sg4
(lp1939
I5
aI2
aI3
aI1
aI0
aI0
aI0
aI0
aI0
aI0
aI0
aI0
aI0
aI0
asg6
S'DET'
p1940
sg8
g9
sg10
g11
sa(dp1941
g2
S'2009-10'
p1942
sg4
(lp1943
I6
aI2
aI4
aI2
aI0
aI0
aI0
aI0
aI0
aI0
aI0
aI0
aI1
aI1
asg6
S'BOS'
p1944
sg8
g9
sg10
g16
sa(dp1945
g2
S'2009-10'
p1946
sg4
(lp1947
I2
aI4
aI4
aI2
aI0
aI0
aI0
aI0
aI0
aI0
aI0
aI0
aI0
aI0
asg6
S'PHI'
p1948
sg8
g9
sg10
g11
sa(dp1949
g2
S'2009-10'
p1950
sg4
(lp1951
I2
aI1
aI3
aI0
aI0
aI0
aI0
aI0
aI0
aI0
aI0
aI0
aI0
aI0
asg6
S'DET'
p1952
sg8
g9
sg10
g16
sa(dp1953
g2
S'2009-10'
p1954
sg4
(lp1955
I3
aI1
aI3
aI0
aI0
aI0
aI0
aI0
aI0
aI0
aI0
aI0
aI0
aI0
asg6
S'NJN'
p1956
sg8
g9
sg10
g11
sa(dp1957
g2
S'2009-10'
p1958
sg4
(lp1959
I1
aI1
aI1
aI1
aI0
aI0
aI1
aI0
aI0
aI0
aI0
aI0
aI0
aI0
asg6
S'NYK'
p1960
sg8
g9
sg10
g16
sa(dp1961
g2
S'2009-10'
p1962
sg4
(lp1963
I8
aI0
aI7
aI1
aI0
aI0
aI0
aI0
aI0
aI0
aI0
aI0
aI0
aI0
asg6
S'TOR'
p1964
sg8
g9
sg10
g11
sa(dp1965
g2
S'2009-10'
p1966
sg4
(lp1967
I4
aI3
aI5
aI1
aI0
aI0
aI2
aI0
aI0
aI0
aI0
aI0
aI0
aI0
asg6
S'BOS'
p1968
sg8
g9
sg10
g11
sa(dp1969
g2
S'2009-10'
p1970
sg4
(lp1971
I2
aI0
aI1
aI0
aI0
aI0
aI1
aI0
aI0
aI0
aI0
aI0
aI0
aI0
asg6
S'NOH'
p1972
sg8
g9
sg10
g16
sa(dp1973
g2
S'2009-10'
p1974
sg4
(lp1975
I5
aI2
aI3
aI2
aI0
aI0
aI0
aI0
aI0
aI0
aI0
aI0
aI0
aI0
asg6
S'ORL'
p1976
sg8
g9
sg10
g11
sa(dp1977
g2
S'2009-10'
p1978
sg4
(lp1979
I4
aI1
aI4
aI1
aI0
aI0
aI0
aI0
aI0
aI0
aI0
aI0
aI0
aI0
asg6
S'CHA'
p1980
sg8
g9
sg10
g11
sa(dp1981
g2
S'2009-10'
p1982
sg4
(lp1983
I7
aI3
aI5
aI2
aI0
aI0
aI0
aI0
aI0
aI0
aI0
aI0
aI0
aI0
asg6
S'DEN'
p1984
sg8
g9
sg10
g16
sa(dp1985
g2
S'2009-10'
p1986
sg4
(lp1987
I4
aI2
aI6
aI0
aI0
aI0
aI0
aI0
aI0
aI0
aI0
aI0
aI0
aI0
asg6
S'ORL'
p1988
sg8
g9
sg10
g16
sa(dp1989
g2
S'2009-10'
p1990
sg4
(lp1991
I1
aI4
aI4
aI0
aI0
aI0
aI0
aI0
aI0
aI0
aI0
aI0
aI0
aI0
asg6
S'NJN'
p1992
sg8
g9
sg10
g16
sa(dp1993
g2
S'2009-10'
p1994
sg4
(lp1995
I4
aI0
aI3
aI0
aI0
aI0
aI0
aI0
aI0
aI0
aI0
aI0
aI0
aI0
asg6
S'NYK'
p1996
sg8
g9
sg10
g16
sa(dp1997
g2
S'2009-10'
p1998
sg4
(lp1999
I7
aI2
aI7
aI2
aI0
aI0
aI1
aI0
aI0
aI0
aI0
aI0
aI2
aI0
asg6
S'MIA'
p2000
sg8
g9
sg10
g16
sa(dp2001
g2
S'2009-10'
p2002
sg4
(lp2003
I4
aI0
aI3
aI0
aI0
aI0
aI0
aI0
aI0
aI0
aI0
aI0
aI0
aI0
asg6
S'MEM'
p2004
sg8
g9
sg10
g16
sa(dp2005
g2
S'2009-10'
p2006
sg4
(lp2007
I4
aI0
aI3
aI1
aI0
aI0
aI0
aI0
aI0
aI0
aI0
aI0
aI0
aI0
asg6
S'LAC'
p2008
sg8
g9
sg10
g16
sa(dp2009
g2
S'2009-10'
p2010
sg4
(lp2011
I7
aI2
aI3
aI5
aI0
aI0
aI0
aI0
aI0
aI0
aI0
aI0
aI0
aI0
asg6
S'IND'
p2012
sg8
g9
sg10
g11
sa(dp2013
g2
S'2009-10'
p2014
sg4
(lp2015
I2
aI0
aI2
aI0
aI0
aI0
aI1
aI1
aI0
aI0
aI0
aI0
aI0
aI0
asg6
S'MIN'
p2016
sg8
g9
sg10
g16
sa(dp2017
g2
S'2009-10'
p2018
sg4
(lp2019
I6
aI3
aI5
aI2
aI0
aI0
aI1
aI0
aI0
aI0
aI0
aI0
aI0
aI0
asg6
S'MIA'
p2020
sg8
g9
sg10
g11
sa(dp2021
g2
S'2009-10'
p2022
sg4
(lp2023
I6
aI3
aI7
aI2
aI0
aI0
aI0
aI1
aI0
aI0
aI0
aI0
aI0
aI0
asg6
S'OKC'
p2024
sg8
g9
sg10
g16
sa(dp2025
g2
S'2009-10'
p2026
sg4
(lp2027
I7
aI1
aI3
aI2
aI0
aI0
aI0
aI0
aI0
aI0
aI0
aI0
aI0
aI0
asg6
S'LAL'
p2028
sg8
g9
sg10
g16
sa(dp2029
g2
S'2009-10'
p2030
sg4
(lp2031
I6
aI2
aI6
aI0
aI0
aI0
aI0
aI0
aI0
aI0
aI0
aI0
aI0
aI0
asg6
S'TOR'
p2032
sg8
g9
sg10
g16
sa(dp2033
g2
S'2009-10'
p2034
sg4
(lp2035
I3
aI1
aI2
aI1
aI0
aI0
aI0
aI0
aI0
aI0
aI0
aI0
aI0
aI0
asg6
S'LAC'
p2036
sg8
g9
sg10
g11
sa(dp2037
g2
S'2009-10'
p2038
sg4
(lp2039
I5
aI3
aI3
aI1
aI0
aI0
aI0
aI0
aI0
aI0
aI0
aI0
aI0
aI0
asg6
S'UTA'
p2040
sg8
g9
sg10
g11
sa(dp2041
g2
S'2009-10'
p2042
sg4
(lp2043
I6
aI2
aI6
aI0
aI0
aI0
aI0
aI0
aI0
aI0
aI0
aI0
aI0
aI0
asg6
S'GSW'
p2044
sg8
g9
sg10
g11
sa(dp2045
g2
S'2009-10'
p2046
sg4
(lp2047
I6
aI1
aI6
aI1
aI0
aI0
aI0
aI0
aI0
aI0
aI0
aI0
aI0
aI0
asg6
S'POR'
p2048
sg8
g9
sg10
g11
sa(dp2049
g2
S'2009-10'
p2050
sg4
(lp2051
I5
aI2
aI4
aI2
aI0
aI0
aI0
aI0
aI0
aI0
aI0
aI0
aI0
aI0
asg6
S'DEN'
p2052
sg8
g9
sg10
g11
sa(dp2053
g2
S'2009-10'
p2054
sg4
(lp2055
I4
aI2
aI3
aI1
aI0
aI0
aI1
aI0
aI0
aI0
aI0
aI0
aI0
aI0
asg6
S'WAS'
p2056
sg8
g9
sg10
g16
sa(dp2057
g2
S'2009-10'
p2058
sg4
(lp2059
I0
aI1
aI1
aI0
aI0
aI0
aI0
aI0
aI0
aI0
aI0
aI0
aI0
aI0
asg6
S'CHA'
p2060
sg8
g9
sg10
g16
sa(dp2061
g2
S'2009-10'
p2062
sg4
(lp2063
I7
aI1
aI6
aI1
aI0
aI0
aI0
aI0
aI0
aI0
aI0
aI0
aI0
aI0
asg6
S'NJN'
p2064
sg8
g9
sg10
g11
sa(dp2065
g2
S'2009-10'
p2066
sg4
(lp2067
I7
aI1
aI6
aI1
aI0
aI0
aI1
aI0
aI0
aI0
aI0
aI0
aI0
aI0
asg6
S'ATL'
p2068
sg8
g9
sg10
g16
sa(dp2069
g2
S'2009-10'
p2070
sg4
(lp2071
I1
aI1
aI1
aI0
aI0
aI0
aI0
aI0
aI0
aI0
aI0
aI0
aI0
aI0
asg6
S'ATL'
p2072
sg8
g9
sg10
g11
sa(dp2073
g2
S'2009-10'
p2074
sg4
(lp2075
I2
aI1
aI1
aI0
aI0
aI0
aI0
aI0
aI0
aI0
aI0
aI0
aI0
aI0
asg6
S'HOU'
p2076
sg8
g9
sg10
g16
sa(dp2077
g2
S'2009-10'
p2078
sg4
(lp2079
I2
aI3
aI2
aI2
aI0
aI0
aI2
aI0
aI0
aI0
aI0
aI0
aI0
aI0
asg6
S'LAL'
p2080
sg8
g9
sg10
g11
sa(dp2081
g2
S'2009-10'
p2082
sg4
(lp2083
I1
aI2
aI3
aI0
aI0
aI0
aI1
aI0
aI0
aI0
aI0
aI0
aI0
aI0
asg6
S'SAC'
p2084
sg8
g9
sg10
g11
sa(dp2085
g2
S'2009-10'
p2086
sg4
(lp2087
I3
aI0
aI2
aI0
aI0
aI0
aI1
aI0
aI0
aI0
aI0
aI0
aI0
aI0
asg6
S'PHX'
p2088
sg8
g9
sg10
g11
sa(dp2089
g2
S'2009-10'
p2090
sg4
(lp2091
I2
aI2
aI3
aI0
aI0
aI0
aI0
aI0
aI0
aI0
aI0
aI0
aI0
aI0
asg6
S'DAL'
p2092
sg8
g9
sg10
g11
sa(dp2093
g2
S'2009-10'
p2094
sg4
(lp2095
I5
aI2
aI7
aI0
aI0
aI0
aI0
aI0
aI0
aI0
aI0
aI0
aI0
aI0
asg6
S'MIL'
p2096
sg8
g9
sg10
g16
sa(dp2097
g2
S'2009-10'
p2098
sg4
(lp2099
I5
aI1
aI4
aI1
aI0
aI0
aI0
aI0
aI0
aI0
aI0
aI0
aI0
aI0
asg6
S'PHI'
p2100
sg8
g9
sg10
g11
sa(dp2101
g2
S'2009-10'
p2102
sg4
(lp2103
I2
aI1
aI1
aI1
aI0
aI0
aI1
aI0
aI0
aI0
aI0
aI0
aI0
aI0
asg6
S'NJN'
p2104
sg8
g9
sg10
g16
sa(dp2105
g2
S'2009-10'
p2106
sg4
(lp2107
I4
aI2
aI2
aI1
aI0
aI0
aI1
aI0
aI0
aI0
aI0
aI0
aI0
aI0
asg6
S'OKC'
p2108
sg8
g9
sg10
g11
sa(dp2109
g2
S'2009-10'
p2110
sg4
(lp2111
I2
aI2
aI2
aI0
aI0
aI0
aI0
aI0
aI0
aI0
aI0
aI0
aI0
aI0
asg6
S'POR'
p2112
sg8
g9
sg10
g16
sa(dp2113
g2
S'2009-10'
p2114
sg4
(lp2115
I4
aI1
aI4
aI0
aI0
aI0
aI1
aI0
aI0
aI0
aI0
aI0
aI0
aI0
asg6
S'HOU'
p2116
sg8
g9
sg10
g11
sa(dp2117
g2
S'2009-10'
p2118
sg4
(lp2119
I6
aI1
aI5
aI0
aI0
aI0
aI0
aI0
aI0
aI0
aI0
aI0
aI0
aI0
asg6
S'MEM'
p2120
sg8
g9
sg10
g11
sa(dp2121
g2
S'2009-10'
p2122
sg4
(lp2123
I4
aI0
aI2
aI1
aI0
aI0
aI0
aI0
aI0
aI0
aI0
aI0
aI0
aI0
asg6
S'MIL'
p2124
sg8
g9
sg10
g11
sa(dp2125
g2
S'2009-10'
p2126
sg4
(lp2127
I2
aI3
aI3
aI1
aI0
aI0
aI1
aI0
aI0
aI0
aI0
aI0
aI0
aI0
asg6
S'CHI'
p2128
sg8
g9
sg10
g16
sa(dp2129
g2
S'2009-10'
p2130
sg4
(lp2131
I0
aI0
aI0
aI0
aI0
aI0
aI0
aI0
aI0
aI0
aI0
aI0
aI0
aI0
asg6
S'PHX'
p2132
sg8
g9
sg10
g16
sa(dp2133
g2
S'2009-10'
p2134
sg4
(lp2135
I3
aI2
aI2
aI0
aI0
aI0
aI0
aI0
aI0
aI0
aI0
aI0
aI0
aI0
asg6
S'DAL'
p2136
sg8
g9
sg10
g16
sa(dp2137
g2
S'2009-10'
p2138
sg4
(lp2139
I1
aI1
aI2
aI0
aI0
aI0
aI0
aI0
aI0
aI0
aI0
aI0
aI0
aI0
asg6
S'CHA'
p2140
sg8
g9
sg10
g11
sa(dp2141
g2
S'2009-10'
p2142
sg4
(lp2143
I5
aI0
aI3
aI2
aI0
aI0
aI1
aI0
aI0
aI0
aI0
aI0
aI0
aI0
asg6
S'DET'
p2144
sg8
g9
sg10
g11
sa(dp2145
g2
S'2009-10'
p2146
sg4
(lp2147
I2
aI1
aI2
aI1
aI0
aI0
aI0
aI0
aI0
aI0
aI0
aI0
aI0
aI0
asg6
S'PHI'
p2148
sg8
g9
sg10
g16
sa(dp2149
g2
S'2009-10'
p2150
sg4
(lp2151
I6
aI1
aI5
aI0
aI0
aI0
aI0
aI0
aI0
aI0
aI0
aI0
aI2
aI0
asg6
S'IND'
p2152
sg8
g9
sg10
g11
sa(dp2153
g2
S'2009-10'
p2154
sg4
(lp2155
I3
aI1
aI2
aI0
aI1
aI0
aI1
aI0
aI0
aI0
aI0
aI0
aI0
aI0
asg6
S'WAS'
p2156
sg8
g9
sg10
g11
sa(dp2157
g2
S'2009-10'
p2158
sg4
(lp2159
I4
aI1
aI3
aI1
aI0
aI0
aI1
aI0
aI0
aI0
aI0
aI0
aI0
aI0
asg6
S'GSW'
p2160
sg8
g9
sg10
g16
sa(dp2161
g2
S'2009-10'
p2162
sg4
(lp2163
I5
aI2
aI4
aI1
aI0
aI0
aI0
aI0
aI0
aI0
aI0
aI0
aI0
aI0
asg6
S'UTA'
p2164
sg8
g9
sg10
g16
sa(dp2165
g2
S'2009-10'
p2166
sg4
(lp2167
I8
aI1
aI7
aI1
aI0
aI0
aI1
aI0
aI0
aI0
aI0
aI0
aI0
aI0
asg6
S'MIA'
p2168
sg8
g9
sg10
g11
sa(dp2169
g2
S'2009-10'
p2170
sg4
(lp2171
I5
aI0
aI3
aI1
aI0
aI0
aI0
aI0
aI0
aI0
aI0
aI0
aI0
aI0
asg6
S'ORL'
p2172
sg8
g9
sg10
g11
sa(dp2173
g2
S'2009-10'
p2174
sg4
(lp2175
I5
aI0
aI2
aI2
aI0
aI0
aI0
aI0
aI0
aI0
aI0
aI0
aI0
aI0
asg6
S'NYK'
p2176
sg8
g9
sg10
g11
sa(dp2177
g2
S'2009-10'
p2178
sg4
(lp2179
I3
aI2
aI3
aI1
aI0
aI0
aI0
aI0
aI0
aI0
aI0
aI0
aI0
aI0
asg6
S'CHI'
p2180
sg8
g9
sg10
g16
sa(dp2181
g2
S'2009-10'
p2182
sg4
(lp2183
I5
aI1
aI4
aI1
aI0
aI0
aI0
aI0
aI0
aI0
aI0
aI0
aI2
aI0
asg6
S'WAS'
p2184
sg8
g9
sg10
g16
sa(dp2185
g2
S'2009-10'
p2186
sg4
(lp2187
I3
aI0
aI1
aI2
aI0
aI0
aI0
aI0
aI0
aI0
aI0
aI0
aI0
aI0
asg6
S'CHA'
p2188
sg8
g9
sg10
g16
sa(dp2189
g2
S'2009-10'
p2190
sg4
(lp2191
I1
aI1
aI1
aI0
aI0
aI0
aI0
aI0
aI0
aI0
aI0
aI0
aI0
aI0
asg6
S'MIN'
p2192
sg8
g9
sg10
g11
sa(dp2193
g2
S'2009-10'
p2194
sg4
(lp2195
I4
aI4
aI4
aI2
aI0
aI0
aI0
aI0
aI0
aI0
aI0
aI0
aI0
aI0
asg6
S'TOR'
p2196
sg8
g9
sg10
g11
sa(dp2197
g2
S'2009-10'
p2198
sg4
(lp2199
I5
aI2
aI5
aI1
aI0
aI0
aI0
aI0
aI0
aI0
aI0
aI0
aI0
aI0
asg6
S'BOS'
p2200
sg8
g9
sg10
g16
sa(dp2201
g2
S'2010-11'
p2202
sg4
(lp2203
I7
aI1
aI5
aI1
aI0
aI0
aI0
aI0
aI0
aI0
aI0
aI0
aI0
aI0
asg6
S'ATL'
p2204
sg8
g9
sg10
g11
sa(dp2205
g2
S'2010-11'
p2206
sg4
(lp2207
I2
aI2
aI2
aI1
aI0
aI0
aI0
aI0
aI1
aI0
aI0
aI1
aI0
aI0
asg6
S'BOS'
p2208
sg8
g9
sg10
g16
sa(dp2209
g2
S'2010-11'
p2210
sg4
(lp2211
I3
aI1
aI2
aI0
aI0
aI0
aI0
aI0
aI0
aI0
aI0
aI0
aI0
aI0
asg6
S'CHA'
p2212
sg8
g9
sg10
g16
sa(dp2213
g2
S'2010-11'
p2214
sg4
(lp2215
I4
aI0
aI2
aI2
aI0
aI0
aI0
aI0
aI0
aI0
aI0
aI0
aI0
aI0
asg6
S'MIL'
p2216
sg8
g9
sg10
g16
sa(dp2217
g2
S'2010-11'
p2218
sg4
(lp2219
I2
aI3
aI3
aI0
aI0
aI0
aI0
aI0
aI0
aI0
aI0
aI0
aI0
aI0
asg6
S'NJN'
p2220
sg8
g9
sg10
g11
sa(dp2221
g2
S'2010-11'
p2222
sg4
(lp2223
I3
aI1
aI2
aI1
aI0
aI0
aI0
aI0
aI0
aI0
aI0
aI0
aI0
aI0
asg6
S'MIN'
p2224
sg8
g9
sg10
g11
sa(dp2225
g2
S'2010-11'
p2226
sg4
(lp2227
I4
aI2
aI5
aI1
aI0
aI0
aI1
aI0
aI0
aI0
aI0
aI0
aI0
aI0
asg6
S'WAS'
p2228
sg8
g9
sg10
g11
sa(dp2229
g2
S'2010-11'
p2230
sg4
(lp2231
I5
aI2
aI1
aI2
aI0
aI0
aI0
aI0
aI0
aI0
aI0
aI0
aI0
aI0
asg6
S'CLE'
p2232
sg8
g9
sg10
g11
sa(dp2233
g2
S'2010-11'
p2234
sg4
(lp2235
I4
aI1
aI3
aI1
aI0
aI0
aI0
aI0
aI0
aI0
aI0
aI0
aI0
aI0
asg6
S'HOU'
p2236
sg8
g9
sg10
g16
sa(dp2237
g2
S'2010-11'
p2238
sg4
(lp2239
I4
aI0
aI4
aI0
aI0
aI0
aI1
aI0
aI0
aI0
aI0
aI0
aI0
aI0
asg6
S'PHI'
p2240
sg8
g9
sg10
g16
sa(dp2241
g2
S'2010-11'
p2242
sg4
(lp2243
I2
aI1
aI1
aI0
aI0
aI0
aI0
aI0
aI0
aI0
aI0
aI0
aI0
aI0
asg6
S'DET'
p2244
sg8
g9
sg10
g11
sa(dp2245
g2
S'2010-11'
p2246
sg4
(lp2247
I1
aI0
aI1
aI0
aI0
aI0
aI0
aI0
aI0
aI0
aI0
aI0
aI0
aI0
asg6
S'DEN'
p2248
sg8
g9
sg10
g16
sa(dp2249
g2
S'2010-11'
p2250
sg4
(lp2251
I3
aI0
aI2
aI0
aI0
aI0
aI0
aI0
aI1
aI0
aI0
aI1
aI0
aI0
asg6
S'ATL'
p2252
sg8
g9
sg10
g11
sa(dp2253
g2
S'2010-11'
p2254
sg4
(lp2255
I2
aI0
aI1
aI0
aI0
aI0
aI0
aI0
aI0
aI0
aI0
aI0
aI0
aI0
asg6
S'OKC'
p2256
sg8
g9
sg10
g16
sa(dp2257
g2
S'2010-11'
p2258
sg4
(lp2259
I3
aI0
aI2
aI0
aI0
aI0
aI0
aI0
aI0
aI0
aI0
aI0
aI0
aI0
asg6
S'SAS'
p2260
sg8
g9
sg10
g16
sa(dp2261
g2
S'2010-11'
p2262
sg4
(lp2263
I3
aI0
aI2
aI1
aI0
aI0
aI0
aI0
aI0
aI0
aI0
aI0
aI0
aI0
asg6
S'MEM'
p2264
sg8
g9
sg10
g16
sa(dp2265
g2
S'2010-11'
p2266
sg4
(lp2267
I2
aI2
aI3
aI0
aI0
aI0
aI0
aI0
aI0
aI0
aI0
aI0
aI0
aI0
asg6
S'LAL'
p2268
sg8
g9
sg10
g16
sa(dp2269
g2
S'2010-11'
p2270
sg4
(lp2271
I1
aI1
aI0
aI2
aI0
aI0
aI0
aI0
aI0
aI0
aI0
aI0
aI0
aI0
asg6
S'POR'
p2272
sg8
g9
sg10
g16
sa(dp2273
g2
S'2010-11'
p2274
sg4
(lp2275
I3
aI0
aI2
aI1
aI0
aI0
aI0
aI0
aI0
aI0
aI0
aI0
aI0
aI0
asg6
S'CHI'
p2276
sg8
g9
sg10
g16
sa(dp2277
g2
S'2010-11'
p2278
sg4
(lp2279
I2
aI2
aI1
aI2
aI0
aI0
aI0
aI0
aI0
aI0
aI0
aI0
aI0
aI0
asg6
S'SAS'
p2280
sg8
g9
sg10
g11
sa(dp2281
g2
S'2010-11'
p2282
sg4
(lp2283
I4
aI0
aI3
aI0
aI0
aI0
aI0
aI0
aI0
aI0
aI0
aI0
aI0
aI0
asg6
S'ORL'
p2284
sg8
g9
sg10
g16
sa(dp2285
g2
S'2010-11'
p2286
sg4
(lp2287
I3
aI2
aI3
aI0
aI0
aI0
aI0
aI0
aI0
aI0
aI0
aI0
aI0
aI0
asg6
S'NYK'
p2288
sg8
g9
sg10
g16
sa(dp2289
g2
S'2010-11'
p2290
sg4
(lp2291
I7
aI3
aI8
aI1
aI0
aI0
aI0
aI0
aI0
aI0
aI0
aI0
aI0
aI0
asg6
S'WAS'
p2292
sg8
g9
sg10
g16
sa(dp2293
g2
S'2010-11'
p2294
sg4
(lp2295
I3
aI1
aI2
aI0
aI0
aI0
aI0
aI0
aI0
aI0
aI0
aI0
aI0
aI0
asg6
S'CHI'
p2296
sg8
g9
sg10
g11
sa(dp2297
g2
S'2010-11'
p2298
sg4
(lp2299
I0
aI2
aI0
aI1
aI0
aI0
aI0
aI0
aI0
aI0
aI0
aI0
aI0
aI0
asg6
S'SAC'
p2300
sg8
g9
sg10
g16
sa(dp2301
g2
S'2010-11'
p2302
sg4
(lp2303
I5
aI1
aI2
aI2
aI0
aI0
aI0
aI0
aI0
aI0
aI0
aI0
aI0
aI0
asg6
S'TOR'
p2304
sg8
g9
sg10
g11
sa(dp2305
g2
S'2010-11'
p2306
sg4
(lp2307
I2
aI1
aI2
aI1
aI0
aI0
aI0
aI0
aI0
aI0
aI0
aI0
aI0
aI0
asg6
S'IND'
p2308
sg8
g9
sg10
g11
sa(dp2309
g2
S'2010-11'
p2310
sg4
(lp2311
I1
aI1
aI1
aI0
aI0
aI0
aI0
aI0
aI0
aI0
aI0
aI0
aI0
aI0
asg6
S'BOS'
p2312
sg8
g9
sg10
g11
sa(dp2313
g2
S'2010-11'
p2314
sg4
(lp2315
I1
aI1
aI1
aI0
aI0
aI0
aI0
aI0
aI0
aI0
aI0
aI0
aI0
aI0
asg6
S'DET'
p2316
sg8
g9
sg10
g11
sa(dp2317
g2
S'2010-11'
p2318
sg4
(lp2319
I5
aI2
aI4
aI2
aI0
aI0
aI0
aI0
aI0
aI0
aI0
aI0
aI0
aI0
asg6
S'IND'
p2320
sg8
g9
sg10
g16
sa(dp2321
g2
S'2010-11'
p2322
sg4
(lp2323
I0
aI1
aI0
aI1
aI0
aI0
aI0
aI0
aI0
aI0
aI0
aI0
aI0
aI0
asg6
S'LAC'
p2324
sg8
g9
sg10
g16
sa(dp2325
g2
S'2010-11'
p2326
sg4
(lp2327
I4
aI0
aI1
aI1
aI0
aI0
aI0
aI0
aI0
aI0
aI0
aI0
aI0
aI0
asg6
S'CHA'
p2328
sg8
g9
sg10
g11
sa(dp2329
g2
S'2010-11'
p2330
sg4
(lp2331
I8
aI1
aI6
aI2
aI0
aI0
aI0
aI0
aI0
aI0
aI0
aI0
aI0
aI0
asg6
S'ORL'
p2332
sg8
g9
sg10
g11
sa(dp2333
g2
S'2010-11'
p2334
sg4
(lp2335
I6
aI0
aI4
aI1
aI0
aI0
aI0
aI0
aI0
aI0
aI0
aI0
aI0
aI0
asg6
S'CLE'
p2336
sg8
g9
sg10
g16
sa(dp2337
g2
S'2010-11'
p2338
sg4
(lp2339
I4
aI2
aI3
aI2
aI0
aI0
aI0
aI0
aI0
aI0
aI0
aI0
aI0
aI0
asg6
S'OKC'
p2340
sg8
g9
sg10
g11
sa(dp2341
g2
S'2010-11'
p2342
sg4
(lp2343
I3
aI3
aI4
aI0
aI0
aI0
aI0
aI0
aI0
aI0
aI0
aI0
aI0
aI0
asg6
S'DET'
p2344
sg8
g9
sg10
g16
sa(dp2345
g2
S'2010-11'
p2346
sg4
(lp2347
I5
aI1
aI5
aI1
aI0
aI0
aI0
aI0
aI0
aI0
aI0
aI0
aI0
aI0
asg6
S'NYK'
p2348
sg8
g9
sg10
g11
sa(dp2349
g2
S'2010-11'
p2350
sg4
(lp2351
I4
aI5
aI5
aI0
aI0
aI0
aI0
aI0
aI0
aI0
aI0
aI0
aI0
aI0
asg6
S'TOR'
p2352
sg8
g9
sg10
g16
sa(dp2353
g2
S'2010-11'
p2354
sg4
(lp2355
I6
aI0
aI4
aI1
aI0
aI0
aI0
aI0
aI0
aI0
aI0
aI0
aI0
aI0
asg6
S'ATL'
p2356
sg8
g9
sg10
g16
sa(dp2357
g2
S'2010-11'
p2358
sg4
(lp2359
I1
aI2
aI1
aI1
aI0
aI0
aI0
aI0
aI0
aI0
aI0
aI0
aI0
aI0
asg6
S'LAC'
p2360
sg8
g9
sg10
g11
sa(dp2361
g2
S'2010-11'
p2362
sg4
(lp2363
I3
aI3
aI4
aI0
aI0
aI0
aI0
aI0
aI0
aI0
aI0
aI0
aI0
aI0
asg6
S'POR'
p2364
sg8
g9
sg10
g11
sa(dp2365
g2
S'2010-11'
p2366
sg4
(lp2367
I4
aI1
aI4
aI0
aI0
aI0
aI1
aI1
aI0
aI0
aI0
aI0
aI0
aI0
asg6
S'MIL'
p2368
sg8
g9
sg10
g11
sa(dp2369
g2
S'2010-11'
p2370
sg4
(lp2371
I5
aI1
aI4
aI1
aI0
aI0
aI0
aI0
aI0
aI0
aI0
aI0
aI0
aI0
asg6
S'MIL'
p2372
sg8
g9
sg10
g16
sa(dp2373
g2
S'2010-11'
p2374
sg4
(lp2375
I4
aI0
aI2
aI0
aI0
aI0
aI0
aI0
aI0
aI0
aI0
aI0
aI0
aI0
asg6
S'CHA'
p2376
sg8
g9
sg10
g11
sa(dp2377
g2
S'2010-11'
p2378
sg4
(lp2379
I6
aI3
aI5
aI3
aI0
aI0
aI0
aI0
aI0
aI0
aI0
aI0
aI0
aI0
asg6
S'GSW'
p2380
sg8
g9
sg10
g16
sa(dp2381
g2
S'2010-11'
p2382
sg4
(lp2383
I2
aI0
aI2
aI0
aI0
aI0
aI0
aI0
aI0
aI0
aI0
aI0
aI0
aI0
asg6
S'HOU'
p2384
sg8
g9
sg10
g11
sa(dp2385
g2
S'2010-11'
p2386
sg4
(lp2387
I1
aI0
aI0
aI1
aI0
aI0
aI0
aI1
aI0
aI0
aI0
aI0
aI0
aI0
asg6
S'NYK'
p2388
sg8
g9
sg10
g16
sa(dp2389
g2
S'2010-11'
p2390
sg4
(lp2391
I3
aI0
aI3
aI0
aI0
aI0
aI0
aI0
aI0
aI0
aI0
aI0
aI0
aI0
asg6
S'LAL'
p2392
sg8
g9
sg10
g11
sa(dp2393
g2
S'2010-11'
p2394
sg4
(lp2395
I5
aI0
aI3
aI0
aI0
aI0
aI0
aI0
aI0
aI0
aI0
aI0
aI0
aI0
asg6
S'PHX'
p2396
sg8
g9
sg10
g11
sa(dp2397
g2
S'2010-11'
p2398
sg4
(lp2399
I3
aI1
aI2
aI0
aI0
aI0
aI0
aI1
aI0
aI0
aI0
aI0
aI0
aI0
asg6
S'DAL'
p2400
sg8
g9
sg10
g16
sa(dp2401
g2
S'2010-11'
p2402
sg4
(lp2403
I5
aI1
aI6
aI0
aI0
aI0
aI0
aI0
aI0
aI0
aI0
aI0
aI0
aI0
asg6
S'WAS'
p2404
sg8
g9
sg10
g11
sa(dp2405
g2
S'2010-11'
p2406
sg4
(lp2407
I0
aI2
aI1
aI0
aI0
aI0
aI0
aI0
aI0
aI0
aI0
aI0
aI0
aI0
asg6
S'NYK'
p2408
sg8
g9
sg10
g11
sa(dp2409
g2
S'2010-11'
p2410
sg4
(lp2411
I5
aI3
aI5
aI2
aI0
aI0
aI0
aI1
aI0
aI0
aI0
aI0
aI1
aI1
asg6
S'CLE'
p2412
sg8
g9
sg10
g16
sa(dp2413
g2
S'2010-11'
p2414
sg4
(lp2415
I4
aI2
aI4
aI0
aI0
aI0
aI0
aI0
aI0
aI0
aI0
aI0
aI0
aI0
asg6
S'NOH'
p2416
sg8
g9
sg10
g16
sa(dp2417
g2
S'2010-11'
p2418
sg4
(lp2419
I2
aI1
aI1
aI1
aI0
aI0
aI0
aI0
aI0
aI0
aI0
aI0
aI0
aI0
asg6
S'SAC'
p2420
sg8
g9
sg10
g11
sa(dp2421
g2
S'2010-11'
p2422
sg4
(lp2423
I2
aI0
aI0
aI1
aI0
aI0
aI0
aI0
aI0
aI0
aI0
aI0
aI0
aI0
asg6
S'GSW'
p2424
sg8
g9
sg10
g11
sa(dp2425
g2
S'2010-11'
p2426
sg4
(lp2427
I4
aI0
aI2
aI1
aI0
aI0
aI0
aI0
aI0
aI0
aI0
aI0
aI0
aI0
asg6
S'UTA'
p2428
sg8
g9
sg10
g11
sa(dp2429
g2
S'2010-11'
p2430
sg4
(lp2431
I2
aI0
aI0
aI2
aI0
aI0
aI0
aI0
aI0
aI0
aI0
aI0
aI0
aI0
asg6
S'MIL'
p2432
sg8
g9
sg10
g11
sa(dp2433
g2
S'2010-11'
p2434
sg4
(lp2435
I5
aI1
aI5
aI1
aI0
aI0
aI1
aI0
aI0
aI0
aI0
aI0
aI0
aI0
asg6
S'ATL'
p2436
sg8
g9
sg10
g16
sa(dp2437
g2
S'2010-11'
p2438
sg4
(lp2439
I4
aI2
aI2
aI1
aI0
aI0
aI0
aI0
aI0
aI0
aI0
aI0
aI0
aI0
asg6
S'CLE'
p2440
sg8
g9
sg10
g11
sa(dp2441
g2
S'2010-11'
p2442
sg4
(lp2443
I0
aI1
aI1
aI0
aI0
aI0
aI0
aI0
aI0
aI0
aI0
aI0
aI0
aI0
asg6
S'DET'
p2444
sg8
g9
sg10
g16
sa(dp2445
g2
S'2010-11'
p2446
sg4
(lp2447
I5
aI1
aI4
aI1
aI0
aI0
aI0
aI0
aI0
aI0
aI0
aI0
aI0
aI0
asg6
S'WAS'
p2448
sg8
g9
sg10
g16
sa(dp2449
g2
S'2010-11'
p2450
sg4
(lp2451
I6
aI1
aI6
aI0
aI0
aI0
aI0
aI0
aI0
aI0
aI0
aI0
aI1
aI1
asg6
S'DAL'
p2452
sg8
g9
sg10
g11
sa(dp2453
g2
S'2010-11'
p2454
sg4
(lp2455
I5
aI1
aI4
aI1
aI0
aI0
aI0
aI0
aI0
aI0
aI0
aI0
aI0
aI0
asg6
S'PHI'
p2456
sg8
g9
sg10
g16
sa(dp2457
g2
S'2010-11'
p2458
sg4
(lp2459
I2
aI2
aI3
aI0
aI0
aI0
aI1
aI0
aI0
aI0
aI0
aI0
aI0
aI0
asg6
S'ORL'
p2460
sg8
g9
sg10
g11
sa(dp2461
g2
S'2010-11'
p2462
sg4
(lp2463
I7
aI1
aI4
aI3
aI0
aI0
aI0
aI0
aI0
aI0
aI0
aI0
aI0
aI0
asg6
S'IND'
p2464
sg8
g9
sg10
g16
sa(dp2465
g2
S'2010-11'
p2466
sg4
(lp2467
I3
aI1
aI2
aI0
aI0
aI0
aI0
aI0
aI0
aI0
aI0
aI0
aI0
aI0
asg6
S'MEM'
p2468
sg8
g9
sg10
g11
sa(dp2469
g2
S'2010-11'
p2470
sg4
(lp2471
I2
aI1
aI3
aI0
aI0
aI0
aI1
aI0
aI0
aI0
aI0
aI0
aI0
aI0
asg6
S'CHA'
p2472
sg8
g9
sg10
g16
sa(dp2473
g2
S'2010-11'
p2474
sg4
(lp2475
I1
aI1
aI1
aI0
aI0
aI0
aI0
aI0
aI0
aI0
aI0
aI0
aI0
aI0
asg6
S'PHX'
p2476
sg8
g9
sg10
g16
sa(dp2477
g2
S'2010-11'
p2478
sg4
(lp2479
I3
aI3
aI3
aI1
aI0
aI0
aI1
aI0
aI0
aI0
aI0
aI0
aI0
aI0
asg6
S'TOR'
p2480
sg8
g9
sg10
g16
sa(dp2481
g2
S'2010-11'
p2482
sg4
(lp2483
I6
aI4
aI8
aI1
aI0
aI0
aI1
aI0
aI1
aI0
aI1
aI0
aI0
aI0
asg6
S'BOS'
p2484
sg8
g9
sg10
g16
sa(dp2485
g2
S'2010-11'
p2486
sg4
(lp2487
I5
aI0
aI4
aI1
aI0
aI0
aI1
aI0
aI0
aI0
aI0
aI0
aI0
aI0
asg6
S'UTA'
p2488
sg8
g9
sg10
g16
sa(dp2489
g2
S'2010-11'
p2490
sg4
(lp2491
I1
aI1
aI1
aI0
aI0
aI0
aI0
aI0
aI0
aI1
aI1
aI0
aI0
aI0
asg6
S'NJN'
p2492
sg8
g9
sg10
g16
sa(dp2493
g2
S'2010-11'
p2494
sg4
(lp2495
I4
aI0
aI3
aI1
aI0
aI0
aI0
aI0
aI0
aI0
aI0
aI0
aI0
aI0
asg6
S'NOH'
p2496
sg8
g9
sg10
g11
sa(dp2497
g2
S'2010-11'
p2498
sg4
(lp2499
I3
aI1
aI3
aI1
aI0
aI0
aI0
aI0
aI0
aI0
aI0
aI0
aI0
aI0
asg6
S'MIN'
p2500
sg8
g9
sg10
g16
sa(dp2501
g2
S'2010-11'
p2502
sg4
(lp2503
I5
aI1
aI5
aI1
aI0
aI0
aI0
aI0
aI0
aI0
aI0
aI0
aI0
aI0
asg6
S'NJN'
p2504
sg8
g9
sg10
g11
sa(dp2505
g2
S'2010-11'
p2506
sg4
(lp2507
I0
aI1
aI1
aI0
aI0
aI0
aI0
aI0
aI0
aI0
aI0
aI0
aI0
aI0
asg6
S'ORL'
p2508
sg8
g9
sg10
g16
sa(dp2509
g2
S'2010-11'
p2510
sg4
(lp2511
I3
aI0
aI3
aI0
aI0
aI0
aI0
aI0
aI0
aI0
aI0
aI0
aI0
aI0
asg6
S'PHI'
p2512
sg8
g9
sg10
g11
sa(dp2513
g2
S'2010-11'
p2514
sg4
(lp2515
I2
aI3
aI5
aI0
aI0
aI0
aI1
aI1
aI0
aI0
aI0
aI0
aI0
aI0
asg6
S'BOS'
p2516
sg8
g9
sg10
g11
sa(dp2517
g2
S'2011-12'
p2518
sg4
(lp2519
I5
aI0
aI4
aI1
aI0
aI0
aI0
aI0
aI0
aI0
aI0
aI0
aI0
aI0
asg6
S'HOU'
p2520
sg8
g9
sg10
g16
sa(dp2521
g2
S'2011-12'
p2522
sg4
(lp2523
I5
aI2
aI5
aI0
aI0
aI0
aI0
aI0
aI0
aI0
aI0
aI0
aI0
aI0
asg6
S'CHI'
p2524
sg8
g9
sg10
g16
sa(dp2525
g2
S'2011-12'
p2526
sg4
(lp2527
I1
aI1
aI1
aI0
aI0
aI0
aI1
aI0
aI0
aI0
aI0
aI0
aI0
aI0
asg6
S'TOR'
p2528
sg8
g9
sg10
g16
sa(dp2529
g2
S'2011-12'
p2530
sg4
(lp2531
I7
aI1
aI6
aI0
aI0
aI0
aI1
aI0
aI0
aI0
aI0
aI0
aI0
aI0
asg6
S'NJN'
p2532
sg8
g9
sg10
g11
sa(dp2533
g2
S'2011-12'
p2534
sg4
(lp2535
I2
aI2
aI2
aI1
aI0
aI0
aI0
aI0
aI1
aI0
aI1
aI0
aI0
aI0
asg6
S'NYK'
p2536
sg8
g9
sg10
g11
sa(dp2537
g2
S'2011-12'
p2538
sg4
(lp2539
I3
aI1
aI2
aI1
aI0
aI0
aI0
aI0
aI0
aI0
aI0
aI0
aI0
aI0
asg6
S'CHA'
p2540
sg8
g9
sg10
g16
sa(dp2541
g2
S'2011-12'
p2542
sg4
(lp2543
I2
aI2
aI3
aI0
aI0
aI0
aI0
aI0
aI0
aI0
aI0
aI0
aI0
aI0
asg6
S'CHI'
p2544
sg8
g9
sg10
g11
sa(dp2545
g2
S'2011-12'
p2546
sg4
(lp2547
I6
aI1
aI6
aI0
aI0
aI0
aI1
aI0
aI0
aI0
aI0
aI0
aI0
aI0
asg6
S'BOS'
p2548
sg8
g9
sg10
g16
sa(dp2549
g2
S'2011-12'
p2550
sg4
(lp2551
I0
aI3
aI1
aI1
aI0
aI0
aI0
aI0
aI0
aI0
aI0
aI0
aI0
aI0
asg6
S'DET'
p2552
sg8
g9
sg10
g16
sa(dp2553
g2
S'2011-12'
p2554
sg4
(lp2555
I1
aI1
aI2
aI0
aI0
aI0
aI0
aI0
aI0
aI0
aI0
aI0
aI0
aI0
asg6
S'MEM'
p2556
sg8
g9
sg10
g16
sa(dp2557
g2
S'2011-12'
p2558
sg4
(lp2559
I4
aI2
aI5
aI0
aI0
aI0
aI0
aI0
aI1
aI0
aI1
aI0
aI0
aI0
asg6
S'OKC'
p2560
sg8
g9
sg10
g16
sa(dp2561
g2
S'2011-12'
p2562
sg4
(lp2563
I5
aI2
aI5
aI1
aI0
aI0
aI0
aI0
aI0
aI0
aI0
aI0
aI0
aI0
asg6
S'PHI'
p2564
sg8
g9
sg10
g16
sa(dp2565
g2
S'2011-12'
p2566
sg4
(lp2567
I1
aI0
aI0
aI0
aI0
aI0
aI0
aI1
aI0
aI0
aI0
aI0
aI0
aI0
asg6
S'BOS'
p2568
sg8
g9
sg10
g11
sa(dp2569
g2
S'2011-12'
p2570
sg4
(lp2571
I2
aI1
aI2
aI1
aI0
aI0
aI0
aI0
aI0
aI0
aI0
aI0
aI0
aI0
asg6
S'TOR'
p2572
sg8
g9
sg10
g11
sa(dp2573
g2
S'2011-12'
p2574
sg4
(lp2575
I2
aI0
aI1
aI0
aI0
aI0
aI0
aI0
aI0
aI0
aI0
aI0
aI0
aI0
asg6
S'DAL'
p2576
sg8
g9
sg10
g16
sa(dp2577
g2
S'2011-12'
p2578
sg4
(lp2579
I1
aI2
aI1
aI0
aI0
aI0
aI0
aI0
aI1
aI0
aI1
aI0
aI0
aI0
asg6
S'IND'
p2580
sg8
g9
sg10
g11
sa(dp2581
g2
S'2011-12'
p2582
sg4
(lp2583
I1
aI0
aI0
aI0
aI0
aI0
aI0
aI0
aI0
aI0
aI0
aI0
aI0
aI0
asg6
S'OKC'
p2584
sg8
g9
sg10
g11
sa(dp2585
g2
S'2011-12'
p2586
sg4
(lp2587
I3
aI0
aI2
aI0
aI0
aI0
aI0
aI0
aI0
aI0
aI0
aI0
aI0
aI0
asg6
S'DET'
p2588
sg8
g9
sg10
g11
sa(dp2589
g2
S'2011-12'
p2590
sg4
(lp2591
I1
aI2
aI3
aI0
aI0
aI0
aI0
aI0
aI0
aI0
aI0
aI0
aI0
aI0
asg6
S'PHX'
p2592
sg8
g9
sg10
g16
sa(dp2593
g2
S'2011-12'
p2594
sg4
(lp2595
I3
aI0
aI2
aI1
aI0
aI0
aI0
aI0
aI0
aI0
aI0
aI0
aI1
aI1
asg6
S'ORL'
p2596
sg8
g9
sg10
g16
sa(dp2597
g2
S'2011-12'
p2598
sg4
(lp2599
I3
aI2
aI2
aI1
aI0
aI0
aI0
aI0
aI0
aI0
aI0
aI0
aI0
aI0
asg6
S'PHI'
p2600
sg8
g9
sg10
g11
sa(dp2601
g2
S'2011-12'
p2602
sg4
(lp2603
I2
aI0
aI1
aI0
aI0
aI0
aI2
aI0
aI0
aI0
aI0
aI0
aI0
aI0
asg6
S'CHI'
p2604
sg8
g9
sg10
g11
sa(dp2605
g2
S'2011-12'
p2606
sg4
(lp2607
I2
aI0
aI1
aI0
aI0
aI0
aI0
aI0
aI0
aI0
aI0
aI0
aI0
aI0
asg6
S'ORL'
p2608
sg8
g9
sg10
g11
sa(dp2609
g2
S'2011-12'
p2610
sg4
(lp2611
I4
aI4
aI5
aI2
aI0
aI0
aI0
aI0
aI0
aI0
aI0
aI0
aI0
aI0
asg6
S'IND'
p2612
sg8
g9
sg10
g16
sa(dp2613
g2
S'2011-12'
p2614
sg4
(lp2615
I3
aI2
aI4
aI1
aI0
aI0
aI0
aI0
aI0
aI0
aI0
aI0
aI0
aI0
asg6
S'ATL'
p2616
sg8
g9
sg10
g16
sa(dp2617
g2
S'2011-12'
p2618
sg4
(lp2619
I1
aI0
aI1
aI0
aI0
aI0
aI0
aI0
aI0
aI0
aI0
aI0
aI0
aI0
asg6
S'NJN'
p2620
sg8
g9
sg10
g16
sa(dp2621
g2
S'2011-12'
p2622
sg4
(lp2623
I1
aI1
aI0
aI1
aI0
aI0
aI0
aI0
aI0
aI0
aI0
aI0
aI0
aI0
asg6
S'LAL'
p2624
sg8
g9
sg10
g11
sa(dp2625
g2
S'2011-12'
p2626
sg4
(lp2627
I1
aI1
aI1
aI0
aI0
aI0
aI0
aI0
aI0
aI0
aI0
aI0
aI0
aI0
asg6
S'UTA'
p2628
sg8
g9
sg10
g11
sa(dp2629
g2
S'2011-12'
p2630
sg4
(lp2631
I5
aI1
aI5
aI1
aI0
aI0
aI0
aI0
aI0
aI0
aI0
aI0
aI0
aI0
asg6
S'POR'
p2632
sg8
g9
sg10
g11
sa(dp2633
g2
S'2011-12'
p2634
sg4
(lp2635
I3
aI0
aI3
aI0
aI0
aI0
aI0
aI0
aI0
aI0
aI0
aI0
aI0
aI0
asg6
S'NYK'
p2636
sg8
g9
sg10
g16
sa(dp2637
g2
S'2011-12'
p2638
sg4
(lp2639
I1
aI0
aI1
aI0
aI0
aI0
aI0
aI0
aI0
aI0
aI0
aI0
aI0
aI0
asg6
S'SAC'
p2640
sg8
g9
sg10
g16
sa(dp2641
g2
S'2011-12'
p2642
sg4
(lp2643
I4
aI0
aI2
aI1
aI0
aI0
aI0
aI0
aI0
aI0
aI0
aI0
aI0
aI0
asg6
S'ORL'
p2644
sg8
g9
sg10
g16
sa(dp2645
g2
S'2011-12'
p2646
sg4
(lp2647
I2
aI0
aI1
aI0
aI0
aI0
aI0
aI0
aI0
aI0
aI0
aI0
aI0
aI0
asg6
S'CLE'
p2648
sg8
g9
sg10
g11
sa(dp2649
g2
S'2011-12'
p2650
sg4
(lp2651
I4
aI1
aI3
aI0
aI0
aI0
aI0
aI0
aI0
aI0
aI0
aI0
aI0
aI0
asg6
S'IND'
p2652
sg8
g9
sg10
g11
sa(dp2653
g2
S'2011-12'
p2654
sg4
(lp2655
I2
aI0
aI1
aI0
aI0
aI0
aI0
aI0
aI0
aI0
aI0
aI0
aI0
aI0
asg6
S'MIL'
p2656
sg8
g9
sg10
g11
sa(dp2657
g2
S'2011-12'
p2658
sg4
(lp2659
I5
aI1
aI5
aI1
aI0
aI0
aI0
aI0
aI0
aI0
aI0
aI0
aI0
aI0
asg6
S'ATL'
p2660
sg8
g9
sg10
g11
sa(dp2661
g2
S'2011-12'
p2662
sg4
(lp2663
I3
aI1
aI3
aI0
aI0
aI0
aI0
aI0
aI0
aI0
aI0
aI0
aI0
aI0
asg6
S'WAS'
p2664
sg8
g9
sg10
g11
sa(dp2665
g2
S'2011-12'
p2666
sg4
(lp2667
I3
aI2
aI4
aI1
aI0
aI0
aI0
aI0
aI0
aI0
aI0
aI0
aI0
aI0
asg6
S'ORL'
p2668
sg8
g9
sg10
g11
sa(dp2669
g2
S'2011-12'
p2670
sg4
(lp2671
I4
aI0
aI2
aI1
aI0
aI0
aI0
aI0
aI0
aI0
aI0
aI0
aI0
aI0
asg6
S'CLE'
p2672
sg8
g9
sg10
g16
sa(dp2673
g2
S'2011-12'
p2674
sg4
(lp2675
I5
aI1
aI5
aI1
aI0
aI0
aI0
aI0
aI0
aI0
aI0
aI0
aI0
aI0
asg6
S'TOR'
p2676
sg8
g9
sg10
g16
sa(dp2677
g2
S'2011-12'
p2678
sg4
(lp2679
I2
aI2
aI1
aI1
aI0
aI0
aI0
aI0
aI0
aI0
aI0
aI0
aI0
aI0
asg6
S'PHI'
p2680
sg8
g9
sg10
g11
sa(dp2681
g2
S'2011-12'
p2682
sg4
(lp2683
I2
aI2
aI4
aI0
aI0
aI0
aI0
aI0
aI0
aI0
aI0
aI0
aI2
aI0
asg6
S'MIL'
p2684
sg8
g9
sg10
g11
sa(dp2685
g2
S'2011-12'
p2686
sg4
(lp2687
I3
aI1
aI2
aI1
aI0
aI0
aI0
aI0
aI0
aI0
aI0
aI0
aI0
aI0
asg6
S'NOH'
p2688
sg8
g9
sg10
g16
sa(dp2689
g2
S'2011-12'
p2690
sg4
(lp2691
I4
aI4
aI6
aI1
aI0
aI0
aI0
aI0
aI0
aI0
aI0
aI0
aI0
aI0
asg6
S'CHI'
p2692
sg8
g9
sg10
g16
sa(dp2693
g2
S'2011-12'
p2694
sg4
(lp2695
I4
aI1
aI5
aI0
aI0
aI0
aI0
aI0
aI0
aI0
aI0
aI0
aI0
aI0
asg6
S'NYK'
p2696
sg8
g9
sg10
g16
sa(dp2697
g2
S'2011-12'
p2698
sg4
(lp2699
I6
aI1
aI7
aI0
aI0
aI0
aI0
aI0
aI0
aI0
aI0
aI0
aI0
aI0
asg6
S'DET'
p2700
sg8
g9
sg10
g11
sa(dp2701
g2
S'2011-12'
p2702
sg4
(lp2703
I1
aI1
aI0
aI1
aI0
aI0
aI0
aI1
aI0
aI0
aI0
aI0
aI0
aI0
asg6
S'CLE'
p2704
sg8
g9
sg10
g16
sa(dp2705
g2
S'2011-12'
p2706
sg4
(lp2707
I6
aI1
aI6
aI0
aI0
aI0
aI0
aI0
aI0
aI0
aI0
aI0
aI0
aI0
asg6
S'MIL'
p2708
sg8
g9
sg10
g16
sa(dp2709
g2
S'2011-12'
p2710
sg4
(lp2711
I2
aI0
aI2
aI0
aI0
aI0
aI0
aI0
aI0
aI0
aI0
aI0
aI0
aI0
asg6
S'PHI'
p2712
sg8
g9
sg10
g16
sa(dp2713
g2
S'2011-12'
p2714
sg4
(lp2715
I2
aI1
aI3
aI0
aI0
aI0
aI0
aI1
aI0
aI0
aI0
aI0
aI0
aI0
asg6
S'LAL'
p2716
sg8
g9
sg10
g16
sa(dp2717
g2
S'2011-12'
p2718
sg4
(lp2719
I3
aI2
aI2
aI2
aI0
aI0
aI0
aI0
aI0
aI0
aI0
aI0
aI0
aI0
asg6
S'SAS'
p2720
sg8
g9
sg10
g16
sa(dp2721
g2
S'2011-12'
p2722
sg4
(lp2723
I4
aI2
aI2
aI3
aI0
aI0
aI0
aI0
aI0
aI0
aI0
aI0
aI0
aI0
asg6
S'DEN'
p2724
sg8
g9
sg10
g11
sa(dp2725
g2
S'2011-12'
p2726
sg4
(lp2727
I3
aI5
aI5
aI2
aI0
aI0
aI0
aI0
aI0
aI0
aI0
aI0
aI1
aI1
asg6
S'LAC'
p2728
sg8
g9
sg10
g11
sa(dp2729
g2
S'2011-12'
p2730
sg4
(lp2731
I4
aI0
aI2
aI2
aI0
aI0
aI0
aI0
aI0
aI0
aI0
aI0
aI0
aI0
asg6
S'GSW'
p2732
sg8
g9
sg10
g11
sa(dp2733
g2
S'2011-12'
p2734
sg4
(lp2735
I5
aI1
aI5
aI0
aI0
aI0
aI0
aI1
aI0
aI0
aI0
aI0
aI0
aI0
asg6
S'NJN'
p2736
sg8
g9
sg10
g11
sa(dp2737
g2
S'2011-12'
p2738
sg4
(lp2739
I6
aI1
aI3
aI1
aI0
aI0
aI0
aI0
aI0
aI0
aI0
aI0
aI0
aI0
asg6
S'IND'
p2740
sg8
g9
sg10
g16
sa(dp2741
g2
S'2011-12'
p2742
sg4
(lp2743
I2
aI3
aI4
aI0
aI0
aI0
aI0
aI0
aI0
aI0
aI0
aI0
aI0
aI0
asg6
S'ATL'
p2744
sg8
g9
sg10
g16
sa(dp2745
g2
S'2011-12'
p2746
sg4
(lp2747
I3
aI0
aI1
aI2
aI0
aI0
aI0
aI0
aI0
aI0
aI0
aI0
aI0
aI0
asg6
S'CHA'
p2748
sg8
g9
sg10
g16
sa(dp2749
g2
S'2011-12'
p2750
sg4
(lp2751
I1
aI2
aI1
aI0
aI0
aI0
aI0
aI0
aI0
aI0
aI0
aI0
aI0
aI0
asg6
S'MIN'
p2752
sg8
g9
sg10
g11
sa(dp2753
g2
S'2011-12'
p2754
sg4
(lp2755
I5
aI0
aI4
aI0
aI0
aI0
aI0
aI0
aI0
aI0
aI0
aI0
aI0
aI0
asg6
S'CHA'
p2756
sg8
g9
sg10
g11
sa(dp2757
g2
S'2011-12'
p2758
sg4
(lp2759
I3
aI0
aI3
aI0
aI0
aI0
aI1
aI0
aI0
aI0
aI0
aI0
aI1
aI1
asg6
S'BOS'
p2760
sg8
g9
sg10
g16
sa(dp2761
g2
S'2011-12'
p2762
sg4
(lp2763
I7
aI4
aI8
aI0
aI0
aI0
aI0
aI0
aI0
aI0
aI0
aI0
aI0
aI0
asg6
S'DAL'
p2764
sg8
g9
sg10
g11
sa(dp2765
g2
S'2012-13'
p2766
sg4
(lp2767
I5
aI1
aI4
aI1
aI0
aI0
aI0
aI1
aI0
aI0
aI0
aI0
aI0
aI0
asg6
S'CHI'
p2768
sg8
g9
sg10
g16
sa(dp2769
g2
S'2012-13'
p2770
sg4
(lp2771
I2
aI0
aI2
aI0
aI0
aI0
aI0
aI0
aI0
aI0
aI0
aI0
aI0
aI0
asg6
S'BOS'
p2772
sg8
g9
sg10
g16
sa(dp2773
g2
S'2012-13'
p2774
sg4
(lp2775
I4
aI0
aI2
aI0
aI0
aI0
aI0
aI0
aI0
aI0
aI0
aI0
aI0
aI0
asg6
S'MIL'
p2776
sg8
g9
sg10
g16
sa(dp2777
g2
S'2012-13'
p2778
sg4
(lp2779
I1
aI0
aI1
aI0
aI0
aI0
aI0
aI0
aI0
aI0
aI0
aI0
aI0
aI0
asg6
S'PHI'
p2780
sg8
g9
sg10
g16
sa(dp2781
g2
S'2012-13'
p2782
sg4
(lp2783
I2
aI0
aI0
aI2
aI0
aI0
aI1
aI0
aI0
aI0
aI0
aI0
aI0
aI0
asg6
S'NOH'
p2784
sg8
g9
sg10
g11
sa(dp2785
g2
S'2012-13'
p2786
sg4
(lp2787
I4
aI2
aI4
aI1
aI0
aI0
aI0
aI0
aI0
aI0
aI0
aI0
aI0
aI0
asg6
S'CHI'
p2788
sg8
g9
sg10
g11
sa(dp2789
g2
S'2012-13'
p2790
sg4
(lp2791
I3
aI3
aI3
aI1
aI0
aI0
aI0
aI0
aI0
aI0
aI0
aI0
aI0
aI0
asg6
S'ORL'
p2792
sg8
g9
sg10
g11
sa(dp2793
g2
S'2012-13'
p2794
sg4
(lp2795
I5
aI1
aI5
aI0
aI0
aI0
aI0
aI0
aI0
aI0
aI0
aI0
aI0
aI0
asg6
S'CHA'
p2796
sg8
g9
sg10
g16
sa(dp2797
g2
S'2012-13'
p2798
sg4
(lp2799
I2
aI2
aI2
aI0
aI0
aI0
aI0
aI0
aI0
aI0
aI0
aI0
aI0
aI0
asg6
S'DET'
p2800
sg8
g9
sg10
g16
sa(dp2801
g2
S'2012-13'
p2802
sg4
(lp2803
I4
aI0
aI2
aI2
aI0
aI0
aI0
aI0
aI0
aI0
aI0
aI0
aI0
aI0
asg6
S'CLE'
p2804
sg8
g9
sg10
g11
sa(dp2805
g2
S'2012-13'
p2806
sg4
(lp2807
I3
aI1
aI1
aI1
aI0
aI0
aI0
aI0
aI0
aI0
aI0
aI0
aI0
aI0
asg6
S'BOS'
p2808
sg8
g9
sg10
g11
sa(dp2809
g2
S'2012-13'
p2810
sg4
(lp2811
I3
aI2
aI4
aI1
aI0
aI0
aI1
aI0
aI0
aI0
aI0
aI0
aI0
aI0
asg6
S'TOR'
p2812
sg8
g9
sg10
g11
sa(dp2813
g2
S'2012-13'
p2814
sg4
(lp2815
I2
aI1
aI2
aI0
aI0
aI0
aI0
aI0
aI0
aI0
aI0
aI0
aI0
aI0
asg6
S'MIL'
p2816
sg8
g9
sg10
g11
sa(dp2817
g2
S'2012-13'
p2818
sg4
(lp2819
I6
aI0
aI4
aI2
aI0
aI0
aI0
aI0
aI0
aI0
aI0
aI0
aI0
aI0
asg6
S'PHI'
p2820
sg8
g9
sg10
g11
sa(dp2821
g2
S'2012-13'
p2822
sg4
(lp2823
I4
aI2
aI5
aI1
aI0
aI0
aI0
aI0
aI0
aI0
aI0
aI0
aI0
aI0
asg6
S'ATL'
p2824
sg8
g9
sg10
g16
sa(dp2825
g2
S'2012-13'
p2826
sg4
(lp2827
I2
aI0
aI1
aI1
aI0
aI0
aI0
aI1
aI0
aI0
aI0
aI0
aI0
aI0
asg6
S'IND'
p2828
sg8
g9
sg10
g16
sa(dp2829
g2
S'2012-13'
p2830
sg4
(lp2831
I2
aI1
aI1
aI1
aI0
aI0
aI0
aI0
aI0
aI0
aI0
aI0
aI0
aI0
asg6
S'PHI'
p2832
sg8
g9
sg10
g16
sa(dp2833
g2
S'2012-13'
p2834
sg4
(lp2835
I5
aI1
aI6
aI0
aI0
aI0
aI0
aI0
aI0
aI0
aI0
aI0
aI0
aI0
asg6
S'ORL'
p2836
sg8
g9
sg10
g16
sa(dp2837
g2
S'2012-13'
p2838
sg4
(lp2839
I1
aI0
aI0
aI0
aI0
aI0
aI0
aI0
aI0
aI0
aI0
aI0
aI0
aI0
asg6
S'MIN'
p2840
sg8
g9
sg10
g11
sa(dp2841
g2
S'2012-13'
p2842
sg4
(lp2843
I1
aI2
aI2
aI1
aI0
aI0
aI0
aI0
aI0
aI0
aI0
aI0
aI0
aI0
asg6
S'NYK'
p2844
sg8
g9
sg10
g11
sa(dp2845
g2
S'2012-13'
p2846
sg4
(lp2847
I2
aI4
aI6
aI0
aI0
aI0
aI0
aI0
aI0
aI0
aI0
aI0
aI0
aI0
asg6
S'MEM'
p2848
sg8
g9
sg10
g16
sa(dp2849
g2
S'2012-13'
p2850
sg4
(lp2851
I6
aI1
aI5
aI0
aI0
aI0
aI0
aI0
aI0
aI0
aI0
aI0
aI0
aI0
asg6
S'SAC'
p2852
sg8
g9
sg10
g16
sa(dp2853
g2
S'2012-13'
p2854
sg4
(lp2855
I4
aI1
aI4
aI1
aI0
aI0
aI0
aI1
aI0
aI0
aI0
aI0
aI0
aI0
asg6
S'CLE'
p2856
sg8
g9
sg10
g16
sa(dp2857
g2
S'2012-13'
p2858
sg4
(lp2859
I1
aI0
aI0
aI1
aI0
aI0
aI0
aI0
aI0
aI0
aI0
aI0
aI0
aI0
asg6
S'PHI'
p2860
sg8
g9
sg10
g11
sa(dp2861
g2
S'2012-13'
p2862
sg4
(lp2863
I2
aI0
aI1
aI0
aI0
aI0
aI0
aI0
aI0
aI0
aI0
aI0
aI0
aI0
asg6
S'CHI'
p2864
sg8
g9
sg10
g11
sa(dp2865
g2
S'2012-13'
p2866
sg4
(lp2867
I3
aI0
aI3
aI0
aI0
aI0
aI0
aI0
aI0
aI1
aI1
aI0
aI0
aI0
asg6
S'ATL'
p2868
sg8
g9
sg10
g11
sa(dp2869
g2
S'2012-13'
p2870
sg4
(lp2871
I2
aI2
aI4
aI0
aI1
aI0
aI0
aI0
aI0
aI0
aI0
aI0
aI0
aI0
asg6
S'OKC'
p2872
sg8
g9
sg10
g11
sa(dp2873
g2
S'2012-13'
p2874
sg4
(lp2875
I4
aI0
aI3
aI1
aI0
aI0
aI0
aI0
aI0
aI0
aI0
aI0
aI0
aI0
asg6
S'POR'
p2876
sg8
g9
sg10
g16
sa(dp2877
g2
S'2012-13'
p2878
sg4
(lp2879
I5
aI0
aI2
aI1
aI0
aI0
aI0
aI0
aI0
aI0
aI0
aI0
aI0
aI0
asg6
S'LAL'
p2880
sg8
g9
sg10
g16
sa(dp2881
g2
S'2012-13'
p2882
sg4
(lp2883
I5
aI1
aI3
aI1
aI0
aI0
aI0
aI1
aI0
aI0
aI0
aI0
aI0
aI0
asg6
S'LAC'
p2884
sg8
g9
sg10
g16
sa(dp2885
g2
S'2012-13'
p2886
sg4
(lp2887
I5
aI0
aI2
aI2
aI0
aI0
aI0
aI1
aI0
aI0
aI0
aI0
aI0
aI0
asg6
S'HOU'
p2888
sg8
g9
sg10
g16
sa(dp2889
g2
S'2012-13'
p2890
sg4
(lp2891
I2
aI1
aI3
aI0
aI0
aI0
aI0
aI0
aI0
aI0
aI0
aI0
aI0
aI0
asg6
S'CHA'
p2892
sg8
g9
sg10
g16
sa(dp2893
g2
S'2012-13'
p2894
sg4
(lp2895
I5
aI1
aI4
aI1
aI0
aI0
aI0
aI0
aI0
aI0
aI0
aI0
aI0
aI0
asg6
S'TOR'
p2896
sg8
g9
sg10
g11
sa(dp2897
g2
S'2012-13'
p2898
sg4
(lp2899
I5
aI1
aI4
aI1
aI0
aI0
aI0
aI0
aI0
aI0
aI0
aI0
aI0
aI0
asg6
S'IND'
p2900
sg8
g9
sg10
g11
sa(dp2901
g2
S'2012-13'
p2902
sg4
(lp2903
I0
aI2
aI1
aI1
aI0
aI0
aI0
aI0
aI0
aI0
aI0
aI0
aI0
aI0
asg6
S'BKN'
p2904
sg8
g9
sg10
g11
sa(dp2905
g2
S'2012-13'
p2906
sg4
(lp2907
I3
aI0
aI0
aI2
aI0
aI0
aI0
aI0
aI0
aI0
aI0
aI0
aI0
aI0
asg6
S'BOS'
p2908
sg8
g9
sg10
g11
sa(dp2909
g2
S'2012-13'
p2910
sg4
(lp2911
I2
aI1
aI3
aI0
aI0
aI0
aI0
aI0
aI0
aI0
aI0
aI0
aI0
aI0
asg6
S'DET'
p2912
sg8
g9
sg10
g16
sa(dp2913
g2
S'2012-13'
p2914
sg4
(lp2915
I3
aI1
aI3
aI0
aI0
aI0
aI0
aI0
aI0
aI0
aI0
aI0
aI0
aI0
asg6
S'TOR'
p2916
sg8
g9
sg10
g16
sa(dp2917
g2
S'2012-13'
p2918
sg4
(lp2919
I3
aI0
aI0
aI0
aI0
aI0
aI1
aI0
aI0
aI0
aI0
aI0
aI0
aI0
asg6
S'LAL'
p2920
sg8
g9
sg10
g11
sa(dp2921
g2
S'2012-13'
p2922
sg4
(lp2923
I1
aI0
aI1
aI0
aI0
aI0
aI0
aI1
aI0
aI0
aI0
aI0
aI0
aI0
asg6
S'GSW'
p2924
sg8
g9
sg10
g11
sa(dp2925
g2
S'2012-13'
p2926
sg4
(lp2927
I3
aI0
aI1
aI0
aI0
aI0
aI0
aI0
aI0
aI0
aI0
aI0
aI0
aI0
asg6
S'UTA'
p2928
sg8
g9
sg10
g11
sa(dp2929
g2
S'2012-13'
p2930
sg4
(lp2931
I2
aI1
aI3
aI0
aI0
aI0
aI1
aI0
aI0
aI0
aI0
aI0
aI0
aI0
asg6
S'SAC'
p2932
sg8
g9
sg10
g11
sa(dp2933
g2
S'2012-13'
p2934
sg4
(lp2935
I0
aI2
aI2
aI0
aI0
aI0
aI0
aI1
aI0
aI0
aI0
aI0
aI0
aI0
asg6
S'POR'
p2936
sg8
g9
sg10
g11
sa(dp2937
g2
S'2012-13'
p2938
sg4
(lp2939
I0
aI2
aI1
aI1
aI0
aI0
aI0
aI0
aI0
aI0
aI0
aI0
aI0
aI0
asg6
S'IND'
p2940
sg8
g9
sg10
g11
sa(dp2941
g2
S'2012-13'
p2942
sg4
(lp2943
I2
aI0
aI2
aI0
aI0
aI0
aI0
aI0
aI0
aI0
aI0
aI0
aI0
aI0
asg6
S'WAS'
p2944
sg8
g9
sg10
g16
sa(dp2945
g2
S'2012-13'
p2946
sg4
(lp2947
I4
aI2
aI6
aI0
aI0
aI0
aI0
aI0
aI1
aI0
aI1
aI0
aI1
aI1
asg6
S'CHI'
p2948
sg8
g9
sg10
g16
sa(dp2949
g2
S'2012-13'
p2950
sg4
(lp2951
I5
aI1
aI3
aI1
aI0
aI0
aI1
aI0
aI0
aI0
aI0
aI0
aI0
aI0
asg6
S'DAL'
p2952
sg8
g9
sg10
g16
sa(dp2953
g2
S'2012-13'
p2954
sg4
(lp2955
I8
aI0
aI6
aI1
aI0
aI0
aI1
aI0
aI0
aI0
aI0
aI0
aI0
aI0
asg6
S'ORL'
p2956
sg8
g9
sg10
g11
sa(dp2957
g2
S'2012-13'
p2958
sg4
(lp2959
I2
aI1
aI1
aI1
aI0
aI0
aI0
aI0
aI0
aI0
aI0
aI0
aI0
aI0
asg6
S'MIL'
p2960
sg8
g9
sg10
g11
sa(dp2961
g2
S'2012-13'
p2962
sg4
(lp2963
I2
aI0
aI1
aI1
aI0
aI0
aI0
aI0
aI0
aI0
aI0
aI0
aI0
aI0
asg6
S'DET'
p2964
sg8
g9
sg10
g11
sa(dp2965
g2
S'2012-13'
p2966
sg4
(lp2967
I4
aI1
aI3
aI0
aI0
aI0
aI0
aI0
aI0
aI0
aI0
aI0
aI0
aI0
asg6
S'CHA'
p2968
sg8
g9
sg10
g11
sa(dp2969
g2
S'2012-13'
p2970
sg4
(lp2971
I3
aI0
aI2
aI0
aI0
aI0
aI0
aI0
aI0
aI0
aI0
aI0
aI0
aI0
asg6
S'OKC'
p2972
sg8
g9
sg10
g16
sa(dp2973
g2
S'2012-13'
p2974
sg4
(lp2975
I3
aI2
aI4
aI1
aI0
aI0
aI0
aI0
aI0
aI0
aI0
aI0
aI0
aI0
asg6
S'UTA'
p2976
sg8
g9
sg10
g16
sa(dp2977
g2
S'2012-13'
p2978
sg4
(lp2979
I1
aI1
aI2
aI0
aI0
aI0
aI0
aI0
aI0
aI0
aI0
aI0
aI0
aI0
asg6
S'DAL'
p2980
sg8
g9
sg10
g11
sa(dp2981
g2
S'2012-13'
p2982
sg4
(lp2983
I3
aI0
aI1
aI1
aI0
aI0
aI0
aI0
aI0
aI0
aI0
aI0
aI0
aI0
asg6
S'MIN'
p2984
sg8
g9
sg10
g16
sa(dp2985
g2
S'2012-13'
p2986
sg4
(lp2987
I4
aI2
aI3
aI2
aI0
aI0
aI0
aI0
aI0
aI0
aI0
aI0
aI0
aI0
asg6
S'WAS'
p2988
sg8
g9
sg10
g16
sa(dp2989
g2
S'2012-13'
p2990
sg4
(lp2991
I2
aI0
aI1
aI0
aI0
aI0
aI0
aI0
aI1
aI0
aI1
aI0
aI0
aI0
asg6
S'GSW'
p2992
sg8
g9
sg10
g16
sa(dp2993
g2
S'2012-13'
p2994
sg4
(lp2995
I3
aI1
aI3
aI0
aI0
aI0
aI0
aI0
aI0
aI0
aI0
aI0
aI0
aI0
asg6
S'ATL'
p2996
sg8
g9
sg10
g16
sa(dp2997
g2
S'2012-13'
p2998
sg4
(lp2999
I1
aI1
aI1
aI0
aI0
aI0
aI0
aI0
aI0
aI0
aI0
aI0
aI0
aI0
asg6
S'NOH'
p3000
sg8
g9
sg10
g16
sa(dp3001
g2
S'2012-13'
p3002
sg4
(lp3003
I4
aI1
aI2
aI2
aI0
aI0
aI0
aI0
aI0
aI0
aI0
aI0
aI0
aI0
asg6
S'NYK'
p3004
sg8
g9
sg10
g16
sa(dp3005
g2
S'2012-13'
p3006
sg4
(lp3007
I1
aI1
aI0
aI1
aI0
aI0
aI0
aI0
aI0
aI0
aI0
aI0
aI0
aI0
asg6
S'WAS'
p3008
sg8
g9
sg10
g11
sa(dp3009
g2
S'2012-13'
p3010
sg4
(lp3011
I3
aI1
aI1
aI1
aI0
aI0
aI0
aI0
aI0
aI0
aI0
aI0
aI0
aI0
asg6
S'BKN'
p3012
sg8
g9
sg10
g16
sa(dp3013
g2
S'2012-13'
p3014
sg4
(lp3015
I1
aI2
aI2
aI1
aI0
aI0
aI0
aI0
aI0
aI0
aI0
aI0
aI0
aI0
asg6
S'SAS'
p3016
sg8
g9
sg10
g16
sa(dp3017
g2
S'2012-13'
p3018
sg4
(lp3019
I4
aI1
aI4
aI0
aI0
aI0
aI0
aI0
aI0
aI0
aI0
aI0
aI0
aI0
asg6
S'CLE'
p3020
sg8
g9
sg10
g16
sa(dp3021
g2
S'2012-13'
p3022
sg4
(lp3023
I1
aI3
aI3
aI1
aI0
aI0
aI0
aI0
aI0
aI0
aI0
aI0
aI0
aI0
asg6
S'MIL'
p3024
sg8
g9
sg10
g16
sa(dp3025
g2
S'2012-13'
p3026
sg4
(lp3027
I2
aI2
aI2
aI1
aI0
aI0
aI0
aI0
aI0
aI0
aI0
aI0
aI0
aI0
asg6
S'PHX'
p3028
sg8
g9
sg10
g11
sa(dp3029
g2
S'2012-13'
p3030
sg4
(lp3031
I2
aI1
aI3
aI0
aI0
aI0
aI0
aI0
aI0
aI0
aI0
aI0
aI0
aI0
asg6
S'DEN'
p3032
sg8
g9
sg10
g11
sa(dp3033
g2
S'2012-13'
p3034
sg4
(lp3035
I4
aI2
aI2
aI1
aI0
aI0
aI0
aI0
aI0
aI0
aI0
aI0
aI0
aI0
asg6
S'LAC'
p3036
sg8
g9
sg10
g11
sa(dp3037
g2
S'2012-13'
p3038
sg4
(lp3039
I2
aI2
aI3
aI1
aI0
aI0
aI0
aI0
aI0
aI0
aI0
aI0
aI0
aI0
asg6
S'HOU'
p3040
sg8
g9
sg10
g11
sa(dp3041
g2
S'2012-13'
p3042
sg4
(lp3043
I0
aI2
aI0
aI2
aI0
aI0
aI0
aI0
aI0
aI0
aI0
aI0
aI0
aI0
asg6
S'MEM'
p3044
sg8
g9
sg10
g11
sa(dp3045
g2
S'2012-13'
p3046
sg4
(lp3047
I1
aI1
aI0
aI1
aI0
aI0
aI0
aI0
aI0
aI0
aI0
aI0
aI0
aI0
asg6
S'ATL'
p3048
sg8
g9
sg10
g11
sa(dp3049
g2
S'2012-13'
p3050
sg4
(lp3051
I2
aI0
aI2
aI0
aI0
aI0
aI0
aI0
aI0
aI0
aI0
aI0
aI0
aI0
asg6
S'BKN'
p3052
sg8
g9
sg10
g16
sa(dp3053
g2
S'2012-13'
p3054
sg4
(lp3055
I0
aI2
aI1
aI0
aI0
aI0
aI0
aI0
aI0
aI0
aI0
aI0
aI0
aI0
asg6
S'PHX'
p3056
sg8
g9
sg10
g16
sa(dp3057
g2
S'2012-13'
p3058
sg4
(lp3059
I2
aI0
aI2
aI0
aI0
aI0
aI0
aI0
aI0
aI0
aI0
aI0
aI0
aI0
asg6
S'DEN'
p3060
sg8
g9
sg10
g16
sa(dp3061
g2
S'2012-13'
p3062
sg4
(lp3063
I2
aI1
aI3
aI0
aI0
aI0
aI0
aI0
aI0
aI0
aI0
aI0
aI0
aI0
asg6
S'NYK'
p3064
sg8
g9
sg10
g11
sa(dp3065
g2
S'2012-13'
p3066
sg4
(lp3067
I2
aI1
aI2
aI0
aI0
aI0
aI0
aI0
aI0
aI0
aI0
aI0
aI0
aI0
asg6
S'BOS'
p3068
sg8
g9
sg10
g16
sa(dp3069
g2
S'2013-14'
p3070
sg4
(lp3071
I2
aI2
aI2
aI1
aI0
aI1
aI0
aI0
aI0
aI0
aI0
aI0
aI0
aI0
asg6
S'ATL'
p3072
sg8
g9
sg10
g11
sa(dp3073
g2
S'2013-14'
p3074
sg4
(lp3075
I7
aI0
aI5
aI1
aI0
aI0
aI0
aI0
aI0
aI0
aI0
aI0
aI0
aI0
asg6
S'IND'
p3076
sg8
g9
sg10
g16
sa(dp3077
g2
S'2013-14'
p3078
sg4
(lp3079
I4
aI0
aI2
aI1
aI0
aI0
aI0
aI0
aI0
aI0
aI0
aI0
aI0
aI0
asg6
S'MEM'
p3080
sg8
g9
sg10
g11
sa(dp3081
g2
S'2013-14'
p3082
sg4
(lp3083
I5
aI2
aI5
aI1
aI0
aI0
aI1
aI0
aI0
aI0
aI0
aI0
aI0
aI0
asg6
S'BKN'
p3084
sg8
g9
sg10
g16
sa(dp3085
g2
S'2013-14'
p3086
sg4
(lp3087
I6
aI1
aI3
aI2
aI0
aI0
aI0
aI0
aI0
aI0
aI0
aI0
aI0
aI0
asg6
S'NYK'
p3088
sg8
g9
sg10
g16
sa(dp3089
g2
S'2013-14'
p3090
sg4
(lp3091
I5
aI1
aI3
aI1
aI0
aI0
aI0
aI0
aI0
aI0
aI0
aI0
aI0
aI0
asg6
S'MIN'
p3092
sg8
g9
sg10
g16
sa(dp3093
g2
S'2013-14'
p3094
sg4
(lp3095
I1
aI2
aI1
aI1
aI0
aI0
aI0
aI0
aI0
aI0
aI0
aI0
aI0
aI0
asg6
S'MIL'
p3096
sg8
g9
sg10
g16
sa(dp3097
g2
S'2013-14'
p3098
sg4
(lp3099
I7
aI0
aI2
aI2
aI0
aI0
aI0
aI0
aI0
aI0
aI0
aI0
aI0
aI0
asg6
S'TOR'
p3100
sg8
g9
sg10
g16
sa(dp3101
g2
S'2013-14'
p3102
sg4
(lp3103
I1
aI1
aI1
aI1
aI0
aI0
aI0
aI0
aI0
aI0
aI0
aI0
aI0
aI0
asg6
S'MIL'
p3104
sg8
g9
sg10
g11
sa(dp3105
g2
S'2013-14'
p3106
sg4
(lp3107
I1
aI0
aI0
aI0
aI0
aI0
aI1
aI0
aI0
aI0
aI0
aI0
aI0
aI0
asg6
S'DET'
p3108
sg8
g9
sg10
g11
sa(dp3109
g2
S'2013-14'
p3110
sg4
(lp3111
I7
aI1
aI7
aI0
aI0
aI0
aI0
aI0
aI0
aI0
aI0
aI0
aI0
aI0
asg6
S'IND'
p3112
sg8
g9
sg10
g11
sa(dp3113
g2
S'2013-14'
p3114
sg4
(lp3115
I4
aI1
aI2
aI2
aI0
aI0
aI0
aI0
aI0
aI0
aI0
aI0
aI0
aI0
asg6
S'POR'
p3116
sg8
g9
sg10
g16
sa(dp3117
g2
S'2013-14'
p3118
sg4
(lp3119
I2
aI0
aI1
aI0
aI0
aI0
aI0
aI0
aI0
aI0
aI0
aI0
aI0
aI0
asg6
S'NOP'
p3120
sg8
g9
sg10
g11
sa(dp3121
g2
S'2013-14'
p3122
sg4
(lp3123
I0
aI1
aI1
aI0
aI0
aI0
aI0
aI0
aI0
aI0
aI0
aI0
aI0
aI0
asg6
S'MEM'
p3124
sg8
g9
sg10
g16
sa(dp3125
g2
S'2013-14'
p3126
sg4
(lp3127
I5
aI1
aI4
aI1
aI0
aI1
aI0
aI1
aI0
aI0
aI0
aI0
aI0
aI0
asg6
S'CLE'
p3128
sg8
g9
sg10
g11
sa(dp3129
g2
S'2013-14'
p3130
sg4
(lp3131
I3
aI1
aI4
aI0
aI0
aI0
aI0
aI0
aI0
aI0
aI0
aI0
aI0
aI0
asg6
S'HOU'
p3132
sg8
g9
sg10
g16
sa(dp3133
g2
S'2013-14'
p3134
sg4
(lp3135
I4
aI0
aI1
aI2
aI0
aI0
aI0
aI0
aI0
aI0
aI0
aI0
aI0
aI0
asg6
S'DEN'
p3136
sg8
g9
sg10
g16
sa(dp3137
g2
S'2013-14'
p3138
sg4
(lp3139
I3
aI2
aI3
aI1
aI0
aI0
aI0
aI0
aI0
aI0
aI0
aI0
aI0
aI0
asg6
S'BKN'
p3140
sg8
g9
sg10
g16
sa(dp3141
g2
S'2013-14'
p3142
sg4
(lp3143
I0
aI0
aI0
aI0
aI0
aI0
aI0
aI0
aI0
aI0
aI0
aI0
aI0
aI0
asg6
S'WAS'
p3144
sg8
g9
sg10
g16
sa(dp3145
g2
S'2013-14'
p3146
sg4
(lp3147
I0
aI0
aI0
aI0
aI0
aI0
aI0
aI0
aI0
aI0
aI0
aI0
aI0
aI0
asg6
S'CHI'
p3148
sg8
g9
sg10
g11
sa(dp3149
g2
S'2013-14'
p3150
sg4
(lp3151
I3
aI0
aI2
aI1
aI0
aI0
aI0
aI1
aI0
aI0
aI0
aI0
aI2
aI0
asg6
S'SAS'
p3152
sg8
g9
sg10
g11
sa(dp3153
g2
S'2013-14'
p3154
sg4
(lp3155
I2
aI1
aI2
aI1
aI0
aI0
aI0
aI0
aI0
aI0
aI0
aI0
aI0
aI0
asg6
S'HOU'
p3156
sg8
g9
sg10
g11
sa(dp3157
g2
S'2013-14'
p3158
sg4
(lp3159
I5
aI2
aI4
aI1
aI0
aI0
aI0
aI0
aI0
aI0
aI0
aI0
aI0
aI0
asg6
S'CHA'
p3160
sg8
g9
sg10
g16
sa(dp3161
g2
S'2013-14'
p3162
sg4
(lp3163
I3
aI0
aI1
aI1
aI0
aI0
aI0
aI0
aI0
aI0
aI0
aI0
aI0
aI0
asg6
S'ORL'
p3164
sg8
g9
sg10
g16
sa(dp3165
g2
S'2013-14'
p3166
sg4
(lp3167
I3
aI1
aI1
aI1
aI0
aI0
aI0
aI0
aI0
aI0
aI0
aI0
aI0
aI0
asg6
S'NYK'
p3168
sg8
g9
sg10
g16
sa(dp3169
g2
S'2013-14'
p3170
sg4
(lp3171
I2
aI1
aI0
aI2
aI0
aI0
aI0
aI0
aI0
aI0
aI0
aI0
aI0
aI0
asg6
S'OKC'
p3172
sg8
g9
sg10
g11
sa(dp3173
g2
S'2013-14'
p3174
sg4
(lp3175
I3
aI2
aI3
aI0
aI0
aI0
aI0
aI0
aI0
aI0
aI0
aI0
aI0
aI0
asg6
S'DAL'
p3176
sg8
g9
sg10
g11
sa(dp3177
g2
S'2013-14'
p3178
sg4
(lp3179
I3
aI1
aI1
aI2
aI0
aI0
aI0
aI0
aI0
aI0
aI0
aI0
aI0
aI0
asg6
S'GSW'
p3180
sg8
g9
sg10
g11
sa(dp3181
g2
S'2013-14'
p3182
sg4
(lp3183
I4
aI2
aI6
aI0
aI0
aI0
aI0
aI0
aI0
aI0
aI0
aI0
aI1
aI1
asg6
S'PHX'
p3184
sg8
g9
sg10
g11
sa(dp3185
g2
S'2013-14'
p3186
sg4
(lp3187
I2
aI1
aI2
aI1
aI0
aI0
aI0
aI0
aI0
aI0
aI0
aI0
aI0
aI0
asg6
S'UTA'
p3188
sg8
g9
sg10
g11
sa(dp3189
g2
S'2013-14'
p3190
sg4
(lp3191
I3
aI1
aI3
aI1
aI0
aI0
aI0
aI0
aI0
aI0
aI0
aI0
aI0
aI0
asg6
S'LAC'
p3192
sg8
g9
sg10
g11
sa(dp3193
g2
S'2013-14'
p3194
sg4
(lp3195
I4
aI1
aI2
aI1
aI0
aI0
aI0
aI0
aI0
aI0
aI0
aI0
aI0
aI0
asg6
S'DET'
p3196
sg8
g9
sg10
g16
sa(dp3197
g2
S'2013-14'
p3198
sg4
(lp3199
I1
aI3
aI2
aI0
aI0
aI0
aI0
aI0
aI0
aI0
aI0
aI0
aI0
aI0
asg6
S'NYK'
p3200
sg8
g9
sg10
g11
sa(dp3201
g2
S'2013-14'
p3202
sg4
(lp3203
I5
aI0
aI4
aI0
aI0
aI0
aI0
aI0
aI0
aI0
aI0
aI0
aI0
aI0
asg6
S'OKC'
p3204
sg8
g9
sg10
g16
sa(dp3205
g2
S'2013-14'
p3206
sg4
(lp3207
I1
aI0
aI0
aI0
aI0
aI0
aI0
aI0
aI0
aI0
aI0
aI0
aI0
aI0
asg6
S'SAS'
p3208
sg8
g9
sg10
g16
sa(dp3209
g2
S'2013-14'
p3210
sg4
(lp3211
I2
aI5
aI5
aI1
aI0
aI0
aI0
aI0
aI0
aI0
aI0
aI0
aI0
aI0
asg6
S'LAL'
p3212
sg8
g9
sg10
g16
sa(dp3213
g2
S'2013-14'
p3214
sg4
(lp3215
I5
aI1
aI4
aI1
aI0
aI0
aI0
aI0
aI0
aI0
aI0
aI0
aI0
aI0
asg6
S'BOS'
p3216
sg8
g9
sg10
g16
sa(dp3217
g2
S'2013-14'
p3218
sg4
(lp3219
I5
aI0
aI0
aI3
aI0
aI0
aI0
aI0
aI0
aI0
aI0
aI0
aI0
aI0
asg6
S'ATL'
p3220
sg8
g9
sg10
g11
sa(dp3221
g2
S'2013-14'
p3222
sg4
(lp3223
I4
aI1
aI4
aI1
aI0
aI0
aI0
aI0
aI0
aI0
aI0
aI0
aI0
aI0
asg6
S'CHA'
p3224
sg8
g9
sg10
g11
sa(dp3225
g2
S'2013-14'
p3226
sg4
(lp3227
I3
aI1
aI3
aI0
aI0
aI0
aI1
aI0
aI0
aI0
aI0
aI0
aI0
aI0
asg6
S'PHI'
p3228
sg8
g9
sg10
g11
sa(dp3229
g2
S'2013-14'
p3230
sg4
(lp3231
I5
aI0
aI3
aI1
aI0
aI0
aI1
aI0
aI0
aI0
aI0
aI0
aI0
aI0
asg6
S'WAS'
p3232
sg8
g9
sg10
g11
sa(dp3233
g2
S'2013-14'
p3234
sg4
(lp3235
I4
aI1
aI3
aI1
aI0
aI0
aI1
aI0
aI1
aI0
aI1
aI0
aI0
aI0
asg6
S'BKN'
p3236
sg8
g9
sg10
g11
sa(dp3237
g2
S'2013-14'
p3238
sg4
(lp3239
I5
aI1
aI2
aI3
aI0
aI0
aI0
aI0
aI0
aI0
aI0
aI0
aI0
aI0
asg6
S'NYK'
p3240
sg8
g9
sg10
g11
sa(dp3241
g2
S'2013-14'
p3242
sg4
(lp3243
I2
aI0
aI1
aI0
aI0
aI0
aI0
aI0
aI0
aI0
aI0
aI0
aI0
aI0
asg6
S'NOP'
p3244
sg8
g9
sg10
g16
sa(dp3245
g2
S'2013-14'
p3246
sg4
(lp3247
I3
aI1
aI3
aI0
aI0
aI0
aI0
aI0
aI0
aI0
aI0
aI0
aI0
aI0
asg6
S'TOR'
p3248
sg8
g9
sg10
g16
sa(dp3249
g2
S'2013-14'
p3250
sg4
(lp3251
I1
aI3
aI4
aI0
aI0
aI0
aI0
aI0
aI0
aI0
aI0
aI0
aI0
aI0
asg6
S'ORL'
p3252
sg8
g9
sg10
g11
sa(dp3253
g2
S'2013-14'
p3254
sg4
(lp3255
I2
aI2
aI3
aI1
aI0
aI0
aI0
aI0
aI0
aI0
aI0
aI0
aI0
aI0
asg6
S'GSW'
p3256
sg8
g9
sg10
g16
sa(dp3257
g2
S'2013-14'
p3258
sg4
(lp3259
I3
aI1
aI2
aI2
aI0
aI0
aI0
aI0
aI0
aI0
aI0
aI0
aI0
aI0
asg6
S'DEN'
p3260
sg8
g9
sg10
g11
sa(dp3261
g2
S'2013-14'
p3262
sg4
(lp3263
I3
aI1
aI2
aI0
aI0
aI0
aI0
aI0
aI0
aI0
aI0
aI0
aI0
aI0
asg6
S'SAC'
p3264
sg8
g9
sg10
g11
sa(dp3265
g2
S'2013-14'
p3266
sg4
(lp3267
I3
aI2
aI2
aI2
aI0
aI0
aI0
aI0
aI0
aI0
aI0
aI0
aI0
aI0
asg6
S'LAL'
p3268
sg8
g9
sg10
g11
sa(dp3269
g2
S'2013-14'
p3270
sg4
(lp3271
I1
aI2
aI1
aI2
aI0
aI0
aI0
aI0
aI0
aI0
aI0
aI0
aI0
aI0
asg6
S'ATL'
p3272
sg8
g9
sg10
g16
sa(dp3273
g2
S'2013-14'
p3274
sg4
(lp3275
I1
aI1
aI0
aI0
aI0
aI0
aI0
aI0
aI0
aI0
aI0
aI0
aI0
aI0
asg6
S'SAC'
p3276
sg8
g9
sg10
g16
sa(dp3277
g2
S'2013-14'
p3278
sg4
(lp3279
I4
aI0
aI3
aI0
aI0
aI0
aI0
aI0
aI0
aI0
aI0
aI0
aI0
aI0
asg6
S'IND'
p3280
sg8
g9
sg10
g16
sa(dp3281
g2
S'2013-14'
p3282
sg4
(lp3283
I3
aI0
aI1
aI1
aI0
aI0
aI0
aI0
aI0
aI0
aI0
aI0
aI0
aI0
asg6
S'UTA'
p3284
sg8
g9
sg10
g16
sa(dp3285
g2
S'2013-14'
p3286
sg4
(lp3287
I3
aI2
aI4
aI1
aI0
aI0
aI0
aI0
aI0
aI0
aI0
aI0
aI0
aI0
asg6
S'CLE'
p3288
sg8
g9
sg10
g16
sa(dp3289
g2
S'2013-14'
p3290
sg4
(lp3291
I2
aI1
aI2
aI1
aI0
aI0
aI0
aI0
aI0
aI0
aI0
aI0
aI0
aI0
asg6
S'IND'
p3292
sg8
g9
sg10
g11
sa(dp3293
g2
S'2013-14'
p3294
sg4
(lp3295
I3
aI0
aI1
aI1
aI0
aI0
aI0
aI0
aI0
aI0
aI0
aI0
aI0
aI0
asg6
S'DET'
p3296
sg8
g9
sg10
g11
sa(dp3297
g2
S'2013-14'
p3298
sg4
(lp3299
I1
aI2
aI2
aI0
aI0
aI0
aI0
aI0
aI0
aI0
aI0
aI0
aI0
aI0
asg6
S'MIN'
p3300
sg8
g9
sg10
g11
sa(dp3301
g2
S'2013-14'
p3302
sg4
(lp3303
I4
aI1
aI2
aI0
aI0
aI0
aI0
aI1
aI0
aI0
aI0
aI0
aI0
aI0
asg6
S'CHI'
p3304
sg8
g9
sg10
g11
sa(dp3305
g2
S'2013-14'
p3306
sg4
(lp3307
I1
aI3
aI3
aI0
aI0
aI0
aI1
aI0
aI0
aI0
aI0
aI0
aI0
aI0
asg6
S'DET'
p3308
sg8
g9
sg10
g16
sa(dp3309
g2
S'2013-14'
p3310
sg4
(lp3311
I6
aI0
aI3
aI1
aI0
aI0
aI0
aI0
aI0
aI0
aI0
aI0
aI0
aI0
asg6
S'CHA'
p3312
sg8
g9
sg10
g16
sa(dp3313
g2
S'2013-14'
p3314
sg4
(lp3315
I1
aI2
aI3
aI0
aI0
aI0
aI0
aI0
aI0
aI0
aI0
aI0
aI0
aI0
asg6
S'TOR'
p3316
sg8
g9
sg10
g11
sa(dp3317
g2
S'2013-14'
p3318
sg4
(lp3319
I4
aI2
aI5
aI0
aI0
aI0
aI0
aI0
aI0
aI0
aI0
aI0
aI0
aI0
asg6
S'CLE'
p3320
sg8
g9
sg10
g11
sa(dp3321
g2
S'2013-14'
p3322
sg4
(lp3323
I6
aI0
aI5
aI0
aI0
aI0
aI0
aI0
aI0
aI0
aI0
aI0
aI0
aI0
asg6
S'PHX'
p3324
sg8
g9
sg10
g16
sa(dp3325
g2
S'2013-14'
p3326
sg4
(lp3327
I1
aI2
aI3
aI0
aI0
aI0
aI1
aI0
aI0
aI0
aI0
aI0
aI0
aI0
asg6
S'ORL'
p3328
sg8
g9
sg10
g16
sa(dp3329
g2
S'2013-14'
p3330
sg4
(lp3331
I5
aI0
aI5
aI0
aI0
aI0
aI1
aI0
aI0
aI0
aI0
aI0
aI0
aI0
asg6
S'ORL'
p3332
sg8
g9
sg10
g11
sa(dp3333
g2
S'2013-14'
p3334
sg4
(lp3335
I1
aI1
aI0
aI1
aI0
aI0
aI0
aI0
aI0
aI0
aI0
aI0
aI0
aI0
asg6
S'ATL'
p3336
sg8
g9
sg10
g16
sa(dp3337
g2
S'2013-14'
p3338
sg4
(lp3339
I3
aI0
aI1
aI0
aI0
aI0
aI0
aI0
aI0
aI0
aI0
aI0
aI0
aI0
asg6
S'CHA'
p3340
sg8
g9
sg10
g11
sa(dp3341
g2
S'2013-14'
p3342
sg4
(lp3343
I5
aI1
aI4
aI0
aI0
aI0
aI1
aI0
aI0
aI0
aI0
aI0
aI0
aI0
asg6
S'DAL'
p3344
sg8
g9
sg10
g16
sa(dp3345
g2
S'2013-14'
p3346
sg4
(lp3347
I3
aI1
aI0
aI2
aI0
aI0
aI0
aI0
aI0
aI0
aI0
aI0
aI0
aI0
asg6
S'MIL'
p3348
sg8
g9
sg10
g16
sa(dp3349
g2
S'2013-14'
p3350
sg4
(lp3351
I4
aI1
aI2
aI1
aI0
aI0
aI1
aI0
aI0
aI0
aI0
aI0
aI0
aI0
asg6
S'BOS'
p3352
sg8
g9
sg10
g16
sa(dp3353
g2
S'2013-14'
p3354
sg4
(lp3355
I4
aI1
aI1
aI3
aI0
aI0
aI0
aI0
aI0
aI0
aI0
aI0
aI0
aI0
asg6
S'LAC'
p3356
sg8
g9
sg10
g16
sa(dp3357
g2
S'2013-14'
p3358
sg4
(lp3359
I5
aI0
aI3
aI0
aI0
aI0
aI0
aI0
aI0
aI0
aI0
aI0
aI0
aI0
asg6
S'TOR'
p3360
sg8
g9
sg10
g11
sa(dp3361
g2
S'2013-14'
p3362
sg4
(lp3363
I1
aI1
aI2
aI0
aI0
aI0
aI1
aI0
aI0
aI0
aI0
aI0
aI0
aI0
asg6
S'WAS'
p3364
sg8
g9
sg10
g16
sa(dp3365
g2
S'2013-14'
p3366
sg4
(lp3367
I0
aI2
aI2
aI0
aI0
aI0
aI1
aI0
aI0
aI0
aI0
aI0
aI0
aI0
asg6
S'BKN'
p3368
sg8
g9
sg10
g11
sa(dp3369
g2
S'2013-14'
p3370
sg4
(lp3371
I1
aI1
aI2
aI0
aI0
aI0
aI0
aI0
aI0
aI0
aI0
aI0
aI0
aI0
asg6
S'PHI'
p3372
sg8
g9
sg10
g11
sa(dp3373
g2
S'2013-14'
p3374
sg4
(lp3375
I4
aI1
aI3
aI1
aI0
aI0
aI0
aI0
aI0
aI0
aI0
aI0
aI0
aI0
asg6
S'CHI'
p3376
sg8
g9
sg10
g16
sa(dp3377
g2
S'2014-15'
p3378
sg4
(lp3379
I1
aI2
aI3
aI0
aI0
aI0
aI0
aI0
aI0
aI0
aI0
aI0
aI0
aI0
asg6
S'DET'
p3380
sg8
g9
sg10
g16
sa(dp3381
g2
S'2014-15'
p3382
sg4
(lp3383
I3
aI2
aI1
aI3
aI0
aI0
aI0
aI0
aI0
aI0
aI0
aI0
aI0
aI0
asg6
S'BOS'
p3384
sg8
g9
sg10
g16
sa(dp3385
g2
S'2014-15'
p3386
sg4
(lp3387
I2
aI0
aI1
aI1
aI0
aI0
aI0
aI0
aI0
aI0
aI0
aI0
aI0
aI0
asg6
S'MIL'
p3388
sg8
g9
sg10
g11
sa(dp3389
g2
S'2014-15'
p3390
sg4
(lp3391
I2
aI2
aI1
aI1
aI0
aI0
aI0
aI0
aI0
aI0
aI0
aI0
aI0
aI0
asg6
S'CHI'
p3392
sg8
g9
sg10
g16
sa(dp3393
g2
S'2014-15'
p3394
sg4
(lp3395
I3
aI1
aI1
aI0
aI0
aI0
aI0
aI0
aI0
aI0
aI0
aI0
aI0
aI0
asg6
S'MIA'
p3396
sg8
g9
sg10
g16
sa(dp3397
g2
S'2014-15'
p3398
sg4
(lp3399
I1
aI2
aI2
aI1
aI0
aI0
aI0
aI0
aI0
aI0
aI0
aI0
aI0
aI0
asg6
S'PHI'
p3400
sg8
g9
sg10
g16
sa(dp3401
g2
S'2014-15'
p3402
sg4
(lp3403
I4
aI1
aI2
aI1
aI0
aI0
aI0
aI0
aI0
aI0
aI0
aI0
aI0
aI0
asg6
S'BKN'
p3404
sg8
g9
sg10
g11
sa(dp3405
g2
S'2014-15'
p3406
sg4
(lp3407
I2
aI0
aI1
aI1
aI0
aI0
aI0
aI0
aI0
aI0
aI0
aI0
aI0
aI0
asg6
S'MEM'
p3408
sg8
g9
sg10
g11
sa(dp3409
g2
S'2014-15'
p3410
sg4
(lp3411
I3
aI0
aI3
aI0
aI0
aI0
aI1
aI0
aI0
aI0
aI0
aI0
aI0
aI0
asg6
S'MIL'
p3412
sg8
g9
sg10
g11
sa(dp3413
g2
S'2014-15'
p3414
sg4
(lp3415
I0
aI1
aI1
aI0
aI0
aI0
aI0
aI0
aI0
aI0
aI0
aI0
aI0
aI0
asg6
S'IND'
p3416
sg8
g9
sg10
g16
sa(dp3417
g2
S'2014-15'
p3418
sg4
(lp3419
I1
aI2
aI3
aI0
aI0
aI0
aI0
aI0
aI0
aI0
aI0
aI0
aI0
aI0
asg6
S'BKN'
p3420
sg8
g9
sg10
g16
sa(dp3421
g2
S'2014-15'
p3422
sg4
(lp3423
I3
aI1
aI3
aI1
aI0
aI0
aI0
aI0
aI0
aI0
aI0
aI0
aI0
aI0
asg6
S'MIA'
p3424
sg8
g9
sg10
g11
sa(dp3425
g2
S'2014-15'
p3426
sg4
(lp3427
I2
aI1
aI1
aI0
aI0
aI0
aI0
aI0
aI0
aI0
aI0
aI0
aI0
aI0
asg6
S'ORL'
p3428
sg8
g9
sg10
g11
sa(dp3429
g2
S'2014-15'
p3430
sg4
(lp3431
I5
aI1
aI3
aI1
aI0
aI0
aI0
aI0
aI0
aI0
aI0
aI0
aI0
aI0
asg6
S'SAS'
p3432
sg8
g9
sg10
g11
sa(dp3433
g2
S'2014-15'
p3434
sg4
(lp3435
I2
aI1
aI1
aI1
aI0
aI0
aI0
aI0
aI0
aI0
aI0
aI0
aI0
aI0
asg6
S'DAL'
p3436
sg8
g9
sg10
g11
sa(dp3437
g2
S'2014-15'
p3438
sg4
(lp3439
I2
aI1
aI1
aI2
aI0
aI0
aI0
aI0
aI0
aI0
aI0
aI0
aI0
aI0
asg6
S'PHX'
p3440
sg8
g9
sg10
g16
sa(dp3441
g2
S'2014-15'
p3442
sg4
(lp3443
I3
aI1
aI4
aI0
aI0
aI0
aI0
aI0
aI0
aI0
aI0
aI0
aI0
aI0
asg6
S'ATL'
p3444
sg8
g9
sg10
g11
sa(dp3445
g2
S'2014-15'
p3446
sg4
(lp3447
I2
aI3
aI5
aI0
aI0
aI0
aI1
aI0
aI0
aI1
aI0
aI1
aI0
aI0
asg6
S'TOR'
p3448
sg8
g9
sg10
g11
sa(dp3449
g2
S'2014-15'
p3450
sg4
(lp3451
I2
aI0
aI1
aI0
aI0
aI0
aI0
aI0
aI0
aI0
aI0
aI0
aI0
aI0
asg6
S'BOS'
p3452
sg8
g9
sg10
g16
sa(dp3453
g2
S'2014-15'
p3454
sg4
(lp3455
I1
aI3
aI2
aI2
aI0
aI0
aI0
aI1
aI0
aI1
aI0
aI1
aI0
aI0
asg6
S'HOU'
p3456
sg8
g9
sg10
g11
sa(dp3457
g2
S'2014-15'
p3458
sg4
(lp3459
I4
aI2
aI4
aI1
aI0
aI0
aI0
aI0
aI0
aI0
aI0
aI0
aI0
aI0
asg6
S'GSW'
p3460
sg8
g9
sg10
g16
sa(dp3461
g2
S'2014-15'
p3462
sg4
(lp3463
I4
aI2
aI2
aI2
aI0
aI0
aI0
aI0
aI0
aI0
aI0
aI0
aI0
aI0
asg6
S'DET'
p3464
sg8
g9
sg10
g11
sa(dp3465
g2
S'2014-15'
p3466
sg4
(lp3467
I2
aI1
aI1
aI1
aI0
aI0
aI0
aI0
aI0
aI0
aI0
aI0
aI0
aI0
asg6
S'NYK'
p3468
sg8
g9
sg10
g11
sa(dp3469
g2
S'2014-15'
p3470
sg4
(lp3471
I1
aI1
aI0
aI1
aI0
aI0
aI0
aI0
aI0
aI0
aI0
aI0
aI0
aI0
asg6
S'WAS'
p3472
sg8
g9
sg10
g11
sa(dp3473
g2
S'2014-15'
p3474
sg4
(lp3475
I3
aI1
aI2
aI0
aI0
aI0
aI0
aI0
aI0
aI0
aI0
aI0
aI0
aI0
asg6
S'CHI'
p3476
sg8
g9
sg10
g11
sa(dp3477
g2
S'2014-15'
p3478
sg4
(lp3479
I4
aI0
aI2
aI1
aI0
aI0
aI0
aI0
aI0
aI0
aI0
aI0
aI0
aI0
asg6
S'MIA'
p3480
sg8
g9
sg10
g16
sa(dp3481
g2
S'2014-15'
p3482
sg4
(lp3483
I2
aI1
aI2
aI0
aI0
aI0
aI0
aI0
aI0
aI0
aI0
aI0
aI0
aI0
asg6
S'LAL'
p3484
sg8
g9
sg10
g16
sa(dp3485
g2
S'2014-15'
p3486
sg4
(lp3487
I2
aI1
aI2
aI1
aI0
aI0
aI0
aI0
aI1
aI0
aI0
aI1
aI0
aI0
asg6
S'IND'
p3488
sg8
g9
sg10
g11
sa(dp3489
g2
S'2014-15'
p3490
sg4
(lp3491
I3
aI1
aI3
aI0
aI0
aI0
aI0
aI0
aI0
aI0
aI0
aI0
aI0
aI0
asg6
S'LAC'
p3492
sg8
g9
sg10
g16
sa(dp3493
g2
S'2014-15'
p3494
sg4
(lp3495
I2
aI1
aI3
aI0
aI0
aI0
aI0
aI0
aI0
aI0
aI0
aI0
aI0
aI0
asg6
S'PHI'
p3496
sg8
g9
sg10
g16
sa(dp3497
g2
S'2014-15'
p3498
sg4
(lp3499
I1
aI3
aI4
aI0
aI0
aI0
aI0
aI0
aI0
aI0
aI0
aI0
aI0
aI0
asg6
S'MIN'
p3500
sg8
g9
sg10
g11
sa(dp3501
g2
S'2014-15'
p3502
sg4
(lp3503
I2
aI1
aI2
aI1
aI0
aI0
aI0
aI0
aI0
aI0
aI0
aI0
aI0
aI0
asg6
S'SAC'
p3504
sg8
g9
sg10
g16
sa(dp3505
g2
S'2014-15'
p3506
sg4
(lp3507
I6
aI0
aI4
aI1
aI0
aI0
aI0
aI0
aI0
aI0
aI0
aI0
aI0
aI0
asg6
S'DET'
p3508
sg8
g9
sg10
g11
sa(dp3509
g2
S'2014-15'
p3510
sg4
(lp3511
I5
aI2
aI5
aI1
aI0
aI0
aI0
aI0
aI0
aI0
aI0
aI0
aI0
aI0
asg6
S'OKC'
p3512
sg8
g9
sg10
g16
sa(dp3513
g2
S'2014-15'
p3514
sg4
(lp3515
I2
aI1
aI2
aI0
aI1
aI0
aI0
aI0
aI0
aI0
aI0
aI0
aI0
aI0
asg6
S'CHA'
p3516
sg8
g9
sg10
g16
sa(dp3517
g2
S'2014-15'
p3518
sg4
(lp3519
I7
aI1
aI3
aI3
aI0
aI0
aI0
aI0
aI0
aI0
aI0
aI0
aI0
aI0
asg6
S'UTA'
p3520
sg8
g9
sg10
g16
sa(dp3521
g2
S'2014-15'
p3522
sg4
(lp3523
I1
aI1
aI1
aI0
aI0
aI0
aI0
aI0
aI0
aI0
aI0
aI0
aI0
aI0
asg6
S'CHI'
p3524
sg8
g9
sg10
g16
sa(dp3525
g2
S'2014-15'
p3526
sg4
(lp3527
I5
aI1
aI2
aI3
aI0
aI0
aI0
aI1
aI0
aI0
aI0
aI0
aI0
aI0
asg6
S'LAC'
p3528
sg8
g9
sg10
g11
sa(dp3529
g2
S'2014-15'
p3530
sg4
(lp3531
I4
aI3
aI4
aI2
aI0
aI0
aI0
aI0
aI0
aI0
aI0
aI0
aI0
aI0
asg6
S'LAL'
p3532
sg8
g9
sg10
g11
sa(dp3533
g2
S'2014-15'
p3534
sg4
(lp3535
I4
aI3
aI4
aI2
aI0
aI0
aI0
aI0
aI0
aI0
aI0
aI0
aI0
aI0
asg6
S'PHX'
p3536
sg8
g9
sg10
g11
sa(dp3537
g2
S'2014-15'
p3538
sg4
(lp3539
I2
aI0
aI2
aI0
aI0
aI0
aI1
aI0
aI0
aI0
aI0
aI0
aI0
aI0
asg6
S'DET'
p3540
sg8
g9
sg10
g16
sa(dp3541
g2
S'2014-15'
p3542
sg4
(lp3543
I5
aI1
aI3
aI0
aI0
aI0
aI1
aI1
aI0
aI0
aI0
aI0
aI0
aI0
asg6
S'ORL'
p3544
sg8
g9
sg10
g11
sa(dp3545
g2
S'2014-15'
p3546
sg4
(lp3547
I5
aI5
aI5
aI3
aI0
aI0
aI0
aI0
aI0
aI0
aI0
aI0
aI0
aI0
asg6
S'MIA'
p3548
sg8
g9
sg10
g11
sa(dp3549
g2
S'2014-15'
p3550
sg4
(lp3551
I2
aI1
aI2
aI0
aI0
aI0
aI0
aI0
aI0
aI0
aI0
aI0
aI0
aI0
asg6
S'MIN'
p3552
sg8
g9
sg10
g16
sa(dp3553
g2
S'2014-15'
p3554
sg4
(lp3555
I2
aI1
aI2
aI1
aI0
aI0
aI0
aI0
aI0
aI0
aI0
aI0
aI0
aI0
asg6
S'MEM'
p3556
sg8
g9
sg10
g16
sa(dp3557
g2
S'2014-15'
p3558
sg4
(lp3559
I2
aI2
aI4
aI0
aI0
aI0
aI0
aI0
aI0
aI0
aI0
aI0
aI0
aI0
asg6
S'BKN'
p3560
sg8
g9
sg10
g16
sa(dp3561
g2
S'2014-15'
p3562
sg4
(lp3563
I3
aI2
aI2
aI0
aI0
aI0
aI0
aI0
aI0
aI0
aI0
aI0
aI0
aI0
asg6
S'ATL'
p3564
sg8
g9
sg10
g16
sa(dp3565
g2
S'2014-15'
p3566
sg4
(lp3567
I1
aI1
aI2
aI0
aI0
aI0
aI0
aI0
aI0
aI0
aI0
aI0
aI0
aI0
asg6
S'CHA'
p3568
sg8
g9
sg10
g16
sa(dp3569
g2
S'2014-15'
p3570
sg4
(lp3571
I3
aI1
aI0
aI2
aI0
aI0
aI2
aI0
aI0
aI0
aI0
aI0
aI0
aI0
asg6
S'NOP'
p3572
sg8
g9
sg10
g11
sa(dp3573
g2
S'2014-15'
p3574
sg4
(lp3575
I5
aI0
aI4
aI0
aI0
aI0
aI0
aI0
aI0
aI0
aI0
aI0
aI0
aI0
asg6
S'TOR'
p3576
sg8
g9
sg10
g16
sa(dp3577
g2
S'2014-15'
p3578
sg4
(lp3579
I1
aI0
aI0
aI0
aI0
aI0
aI0
aI1
aI0
aI0
aI0
aI0
aI0
aI0
asg6
S'BKN'
p3580
sg8
g9
sg10
g11
sa(dp3581
g2
S'2014-15'
p3582
sg4
(lp3583
I3
aI0
aI1
aI1
aI0
aI0
aI0
aI1
aI0
aI0
aI0
aI0
aI0
aI0
asg6
S'TOR'
p3584
sg8
g9
sg10
g11
sa(dp3585
g2
S'2014-15'
p3586
sg4
(lp3587
I3
aI1
aI1
aI2
aI0
aI0
aI0
aI0
aI0
aI0
aI0
aI0
aI0
aI0
asg6
S'NYK'
p3588
sg8
g9
sg10
g11
sa(dp3589
g2
S'2014-15'
p3590
sg4
(lp3591
I8
aI3
aI6
aI4
aI0
aI0
aI0
aI0
aI0
aI0
aI0
aI0
aI0
aI0
asg6
S'MIL'
p3592
sg8
g9
sg10
g16
sa(dp3593
g2
S'2014-15'
p3594
sg4
(lp3595
I1
aI1
aI0
aI0
aI0
aI0
aI0
aI0
aI0
aI0
aI0
aI0
aI0
aI0
asg6
S'IND'
p3596
sg8
g9
sg10
g16
sa(dp3597
g2
S'2014-15'
p3598
sg4
(lp3599
I7
aI2
aI7
aI1
aI0
aI0
aI0
aI0
aI0
aI0
aI0
aI0
aI0
aI0
asg6
S'WAS'
p3600
sg8
g9
sg10
g16
sa(dp3601
g2
S'2014-15'
p3602
sg4
(lp3603
I3
aI1
aI3
aI1
aI0
aI0
aI1
aI0
aI0
aI0
aI0
aI0
aI2
aI0
asg6
S'ORL'
p3604
sg8
g9
sg10
g16
sa(dp3605
g2
S'2014-15'
p3606
sg4
(lp3607
I1
aI1
aI1
aI0
aI0
aI0
aI0
aI0
aI0
aI0
aI0
aI0
aI0
aI0
asg6
S'TOR'
p3608
sg8
g9
sg10
g16
sa(dp3609
g2
S'2014-15'
p3610
sg4
(lp3611
I2
aI2
aI2
aI1
aI0
aI0
aI0
aI0
aI0
aI0
aI0
aI0
aI0
aI0
asg6
S'WAS'
p3612
sg8
g9
sg10
g11
sa(dp3613
g2
S'2014-15'
p3614
sg4
(lp3615
I1
aI0
aI0
aI0
aI0
aI0
aI0
aI0
aI0
aI0
aI0
aI0
aI0
aI0
asg6
S'SAS'
p3616
sg8
g9
sg10
g16
sa(dp3617
g2
S'2014-15'
p3618
sg4
(lp3619
I3
aI1
aI2
aI1
aI0
aI0
aI0
aI0
aI0
aI0
aI0
aI0
aI0
aI0
asg6
S'DEN'
p3620
sg8
g9
sg10
g16
sa(dp3621
g2
S'2014-15'
p3622
sg4
(lp3623
I1
aI2
aI1
aI0
aI0
aI0
aI0
aI0
aI0
aI0
aI0
aI0
aI0
aI0
asg6
S'ATL'
p3624
sg8
g9
sg10
g16
sa(dp3625
g2
S'2014-15'
p3626
sg4
(lp3627
I4
aI1
aI2
aI2
aI0
aI0
aI0
aI0
aI0
aI0
aI0
aI0
aI0
aI0
asg6
S'BOS'
p3628
sg8
g9
sg10
g11
sa(dp3629
g2
S'2014-15'
p3630
sg4
(lp3631
I5
aI3
aI7
aI1
aI1
aI0
aI0
aI0
aI0
aI0
aI0
aI0
aI0
aI0
asg6
S'NOP'
p3632
sg8
g9
sg10
g16
sa(dp3633
g2
S'2014-15'
p3634
sg4
(lp3635
I3
aI0
aI1
aI1
aI0
aI0
aI1
aI0
aI0
aI0
aI0
aI0
aI0
aI0
asg6
S'DEN'
p3636
sg8
g9
sg10
g11
sa(dp3637
g2
S'2014-15'
p3638
sg4
(lp3639
I6
aI0
aI5
aI0
aI1
aI0
aI0
aI0
aI0
aI0
aI0
aI0
aI0
aI0
asg6
S'UTA'
p3640
sg8
g9
sg10
g11
sa(dp3641
g2
S'2014-15'
p3642
sg4
(lp3643
I1
aI0
aI0
aI0
aI0
aI0
aI0
aI0
aI0
aI0
aI0
aI0
aI0
aI0
asg6
S'POR'
p3644
sg8
g9
sg10
g11
sa(dp3645
g2
S'2014-15'
p3646
sg4
(lp3647
I5
aI0
aI2
aI2
aI0
aI0
aI0
aI0
aI0
aI0
aI0
aI0
aI0
aI0
asg6
S'CHI'
p3648
sg8
g9
sg10
g11
sa(dp3649
g2
S'2014-15'
p3650
sg4
(lp3651
I3
aI1
aI3
aI0
aI0
aI0
aI0
aI0
aI0
aI0
aI0
aI0
aI0
aI0
asg6
S'NYK'
p3652
sg8
g9
sg10
g16
sa(dp3653
g2
S'2015-16'
p3654
sg4
(lp3655
I4
aI0
aI1
aI0
aI0
aI0
aI0
aI0
aI0
aI0
aI0
aI0
aI0
aI0
asg6
S'ATL'
p3656
sg8
g9
sg10
g16
sa(dp3657
g2
S'2015-16'
p3658
sg4
(lp3659
I2
aI0
aI1
aI1
aI0
aI0
aI0
aI0
aI0
aI0
aI0
aI0
aI0
aI0
asg6
S'CHI'
p3660
sg8
g9
sg10
g11
sa(dp3661
g2
S'2015-16'
p3662
sg4
(lp3663
I1
aI0
aI1
aI0
aI0
aI0
aI0
aI0
aI0
aI0
aI0
aI0
aI0
aI0
asg6
S'MIL'
p3664
sg8
g9
sg10
g11
sa(dp3665
g2
S'2015-16'
p3666
sg4
(lp3667
I2
aI0
aI1
aI0
aI0
aI0
aI0
aI0
aI0
aI0
aI0
aI0
aI0
aI0
asg6
S'CHA'
p3668
sg8
g9
sg10
g16
sa(dp3669
g2
S'2015-16'
p3670
sg4
(lp3671
I2
aI1
aI2
aI0
aI0
aI0
aI0
aI0
aI0
aI0
aI0
aI0
aI0
aI0
asg6
S'ATL'
p3672
sg8
g9
sg10
g11
sa(dp3673
g2
S'2015-16'
p3674
sg4
(lp3675
I6
aI1
aI2
aI1
aI0
aI0
aI0
aI0
aI0
aI0
aI0
aI0
aI0
aI0
asg6
S'BKN'
p3676
sg8
g9
sg10
g16
sa(dp3677
g2
S'2015-16'
p3678
sg4
(lp3679
I4
aI1
aI1
aI0
aI0
aI0
aI0
aI0
aI0
aI0
aI0
aI0
aI0
aI0
asg6
S'NYK'
p3680
sg8
g9
sg10
g11
sa(dp3681
g2
S'2015-16'
p3682
sg4
(lp3683
I2
aI1
aI1
aI0
aI0
aI0
aI0
aI0
aI0
aI0
aI0
aI0
aI0
aI0
asg6
S'BKN'
p3684
sg8
g9
sg10
g11
sa(dp3685
g2
S'2015-16'
p3686
sg4
(lp3687
I3
aI2
aI4
aI1
aI0
aI0
aI0
aI0
aI0
aI0
aI0
aI0
aI0
aI0
asg6
S'MIL'
p3688
sg8
g9
sg10
g16
sa(dp3689
g2
S'2015-16'
p3690
sg4
(lp3691
I4
aI2
aI2
aI1
aI0
aI0
aI0
aI0
aI0
aI0
aI0
aI0
aI2
aI0
asg6
S'DEN'
p3692
sg8
g9
sg10
g16
sa(dp3693
g2
S'2015-16'
p3694
sg4
(lp3695
I0
aI0
aI0
aI0
aI0
aI0
aI0
aI0
aI0
aI0
aI0
aI0
aI0
aI0
asg6
S'MIA'
p3696
sg8
g9
sg10
g11
sa(dp3697
g2
S'2015-16'
p3698
sg4
(lp3699
I3
aI0
aI3
aI0
aI0
aI0
aI0
aI0
aI0
aI0
aI0
aI0
aI0
aI0
asg6
S'ORL'
p3700
sg8
g9
sg10
g11
sa(dp3701
g2
S'2015-16'
p3702
sg4
(lp3703
I0
aI1
aI1
aI0
aI0
aI0
aI0
aI0
aI0
aI0
aI0
aI0
aI0
aI0
asg6
S'UTA'
p3704
sg8
g9
sg10
g11
sa(dp3705
g2
S'2015-16'
p3706
sg4
(lp3707
I5
aI0
aI1
aI1
aI0
aI0
aI0
aI0
aI0
aI0
aI0
aI0
aI0
aI0
asg6
S'LAC'
p3708
sg8
g9
sg10
g11
sa(dp3709
g2
S'2015-16'
p3710
sg4
(lp3711
I2
aI2
aI3
aI1
aI0
aI0
aI0
aI0
aI0
aI0
aI0
aI0
aI0
aI0
asg6
S'LAL'
p3712
sg8
g9
sg10
g11
sa(dp3713
g2
S'2015-16'
p3714
sg4
(lp3715
I4
aI1
aI4
aI0
aI0
aI0
aI0
aI0
aI0
aI0
aI0
aI0
aI0
aI0
asg6
S'SAC'
p3716
sg8
g9
sg10
g11
sa(dp3717
g2
S'2015-16'
p3718
sg4
(lp3719
I2
aI1
aI2
aI0
aI0
aI0
aI0
aI0
aI0
aI0
aI0
aI0
aI0
aI0
asg6
S'MEM'
p3720
sg8
g9
sg10
g16
sa(dp3721
g2
S'2015-16'
p3722
sg4
(lp3723
I3
aI2
aI2
aI2
aI0
aI0
aI0
aI0
aI0
aI0
aI0
aI0
aI0
aI0
asg6
S'BOS'
p3724
sg8
g9
sg10
g16
sa(dp3725
g2
S'2015-16'
p3726
sg4
(lp3727
I2
aI0
aI2
aI0
aI0
aI0
aI0
aI0
aI0
aI0
aI0
aI0
aI0
aI0
asg6
S'WAS'
p3728
sg8
g9
sg10
g16
sa(dp3729
g2
S'2015-16'
p3730
sg4
(lp3731
I2
aI1
aI1
aI0
aI0
aI0
aI0
aI1
aI0
aI0
aI0
aI0
aI0
aI0
asg6
S'IND'
p3732
sg8
g9
sg10
g16
sa(dp3733
g2
S'2015-16'
p3734
sg4
(lp3735
I3
aI1
aI1
aI3
aI0
aI0
aI1
aI0
aI0
aI0
aI0
aI0
aI0
aI0
asg6
S'TOR'
p3736
sg8
g9
sg10
g11
sa(dp3737
g2
S'2015-16'
p3738
sg4
(lp3739
I3
aI1
aI2
aI2
aI0
aI0
aI0
aI0
aI0
aI0
aI0
aI0
aI0
aI0
asg6
S'CHA'
p3740
sg8
g9
sg10
g16
sa(dp3741
g2
S'2015-16'
p3742
sg4
(lp3743
I1
aI0
aI1
aI0
aI0
aI0
aI0
aI0
aI0
aI0
aI0
aI0
aI0
aI0
asg6
S'DET'
p3744
sg8
g9
sg10
g16
sa(dp3745
g2
S'2015-16'
p3746
sg4
(lp3747
I1
aI0
aI0
aI0
aI0
aI0
aI0
aI0
aI0
aI0
aI0
aI0
aI0
aI0
asg6
S'OKC'
p3748
sg8
g9
sg10
g11
sa(dp3749
g2
S'2015-16'
p3750
sg4
(lp3751
I2
aI0
aI1
aI0
aI0
aI0
aI0
aI0
aI0
aI0
aI0
aI0
aI0
aI0
asg6
S'CHI'
p3752
sg8
g9
sg10
g16
sa(dp3753
g2
S'2015-16'
p3754
sg4
(lp3755
I1
aI2
aI1
aI1
aI0
aI0
aI0
aI0
aI0
aI0
aI0
aI0
aI0
aI0
asg6
S'LAL'
p3756
sg8
g9
sg10
g16
sa(dp3757
g2
S'2015-16'
p3758
sg4
(lp3759
I2
aI1
aI2
aI0
aI0
aI0
aI0
aI0
aI0
aI0
aI0
aI0
aI0
aI0
asg6
S'SAC'
p3760
sg8
g9
sg10
g16
sa(dp3761
g2
S'2015-16'
p3762
sg4
(lp3763
I2
aI0
aI1
aI0
aI0
aI0
aI0
aI0
aI0
aI0
aI0
aI0
aI0
aI0
asg6
S'NOP'
p3764
sg8
g9
sg10
g16
sa(dp3765
g2
S'2015-16'
p3766
sg4
(lp3767
I7
aI3
aI5
aI2
aI0
aI0
aI0
aI0
aI0
aI0
aI0
aI0
aI0
aI0
asg6
S'BOS'
p3768
sg8
g9
sg10
g16
sa(dp3769
g2
S'2015-16'
p3770
sg4
(lp3771
I2
aI1
aI1
aI1
aI0
aI0
aI0
aI0
aI0
aI0
aI0
aI0
aI0
aI0
asg6
S'CHA'
p3772
sg8
g9
sg10
g11
sa(dp3773
g2
S'2015-16'
p3774
sg4
(lp3775
I2
aI3
aI4
aI1
aI0
aI0
aI0
aI0
aI0
aI0
aI0
aI0
aI0
aI0
asg6
S'IND'
p3776
sg8
g9
sg10
g11
sa(dp3777
g2
S'2015-16'
p3778
sg4
(lp3779
I5
aI1
aI4
aI1
aI0
aI0
aI0
aI0
aI0
aI0
aI0
aI0
aI0
aI0
asg6
S'SAS'
p3780
sg8
g9
sg10
g16
sa(dp3781
g2
S'2015-16'
p3782
sg4
(lp3783
I2
aI1
aI3
aI0
aI0
aI0
aI1
aI0
aI0
aI0
aI0
aI0
aI0
aI0
asg6
S'DET'
p3784
sg8
g9
sg10
g11
sa(dp3785
g2
S'2015-16'
p3786
sg4
(lp3787
I4
aI0
aI3
aI0
aI0
aI0
aI0
aI0
aI0
aI0
aI0
aI0
aI0
aI0
asg6
S'PHX'
p3788
sg8
g9
sg10
g16
sa(dp3789
g2
S'2015-16'
p3790
sg4
(lp3791
I1
aI1
aI1
aI0
aI0
aI0
aI0
aI0
aI0
aI0
aI0
aI0
aI0
aI0
asg6
S'MIN'
p3792
sg8
g9
sg10
g16
sa(dp3793
g2
S'2015-16'
p3794
sg4
(lp3795
I3
aI2
aI1
aI1
aI0
aI0
aI0
aI0
aI0
aI0
aI0
aI0
aI0
aI0
asg6
S'CHI'
p3796
sg8
g9
sg10
g16
sa(dp3797
g2
S'2015-16'
p3798
sg4
(lp3799
I3
aI0
aI0
aI2
aI0
aI0
aI0
aI0
aI0
aI0
aI0
aI0
aI0
aI0
asg6
S'LAC'
p3800
sg8
g9
sg10
g16
sa(dp3801
g2
S'2015-16'
p3802
sg4
(lp3803
I0
aI2
aI2
aI0
aI0
aI0
aI0
aI0
aI0
aI0
aI0
aI0
aI0
aI0
asg6
S'BKN'
p3804
sg8
g9
sg10
g11
sa(dp3805
g2
S'2015-16'
p3806
sg4
(lp3807
I1
aI0
aI1
aI0
aI0
aI0
aI0
aI0
aI0
aI0
aI0
aI0
aI0
aI0
asg6
S'GSW'
p3808
sg8
g9
sg10
g16
sa(dp3809
g2
S'2015-16'
p3810
sg4
(lp3811
I1
aI2
aI3
aI0
aI0
aI0
aI0
aI0
aI0
aI0
aI0
aI0
aI0
aI0
asg6
S'HOU'
p3812
sg8
g9
sg10
g11
sa(dp3813
g2
S'2015-16'
p3814
sg4
(lp3815
I2
aI1
aI1
aI0
aI0
aI0
aI0
aI0
aI0
aI0
aI0
aI0
aI0
aI0
asg6
S'SAS'
p3816
sg8
g9
sg10
g11
sa(dp3817
g2
S'2015-16'
p3818
sg4
(lp3819
I2
aI2
aI4
aI0
aI0
aI0
aI0
aI0
aI0
aI0
aI0
aI0
aI0
aI0
asg6
S'DAL'
p3820
sg8
g9
sg10
g11
sa(dp3821
g2
S'2015-16'
p3822
sg4
(lp3823
I2
aI1
aI1
aI1
aI0
aI0
aI1
aI0
aI0
aI0
aI0
aI0
aI0
aI0
asg6
S'PHI'
p3824
sg8
g9
sg10
g11
sa(dp3825
g2
S'2015-16'
p3826
sg4
(lp3827
I1
aI1
aI2
aI0
aI0
aI0
aI0
aI0
aI0
aI0
aI0
aI0
aI0
aI0
asg6
S'MIN'
p3828
sg8
g9
sg10
g11
sa(dp3829
g2
S'2015-16'
p3830
sg4
(lp3831
I3
aI0
aI2
aI1
aI0
aI0
aI1
aI1
aI0
aI0
aI0
aI0
aI0
aI0
asg6
S'WAS'
p3832
sg8
g9
sg10
g11
sa(dp3833
g2
S'2015-16'
p3834
sg4
(lp3835
I1
aI2
aI3
aI0
aI0
aI0
aI1
aI1
aI0
aI0
aI0
aI0
aI0
aI0
asg6
S'TOR'
p3836
sg8
g9
sg10
g16
sa(dp3837
g2
S'2015-16'
p3838
sg4
(lp3839
I2
aI0
aI1
aI1
aI0
aI0
aI0
aI0
aI0
aI0
aI0
aI0
aI0
aI0
asg6
S'ORL'
p3840
sg8
g9
sg10
g16
sa(dp3841
g2
S'2015-16'
p3842
sg4
(lp3843
I4
aI0
aI3
aI1
aI0
aI0
aI0
aI0
aI0
aI0
aI0
aI0
aI0
aI0
asg6
S'DEN'
p3844
sg8
g9
sg10
g11
sa(dp3845
g2
S'2015-16'
p3846
sg4
(lp3847
I4
aI1
aI1
aI3
aI0
aI0
aI0
aI0
aI0
aI0
aI0
aI0
aI0
aI0
asg6
S'PHX'
p3848
sg8
g9
sg10
g11
sa(dp3849
g2
S'2015-16'
p3850
sg4
(lp3851
I2
aI0
aI1
aI1
aI0
aI0
aI1
aI0
aI0
aI0
aI0
aI0
aI0
aI0
asg6
S'POR'
p3852
sg8
g9
sg10
g11
sa(dp3853
g2
S'2015-16'
p3854
sg4
(lp3855
I2
aI3
aI2
aI2
aI0
aI0
aI0
aI0
aI0
aI0
aI0
aI0
aI0
aI0
asg6
S'GSW'
p3856
sg8
g9
sg10
g11
sa(dp3857
g2
S'2015-16'
p3858
sg4
(lp3859
I2
aI0
aI1
aI1
aI0
aI0
aI1
aI0
aI0
aI0
aI0
aI0
aI2
aI0
asg6
S'NYK'
p3860
sg8
g9
sg10
g16
sa(dp3861
g2
S'2015-16'
p3862
sg4
(lp3863
I1
aI1
aI2
aI0
aI0
aI0
aI0
aI0
aI0
aI0
aI0
aI0
aI0
aI0
asg6
S'PHI'
p3864
sg8
g9
sg10
g16
sa(dp3865
g2
S'2015-16'
p3866
sg4
(lp3867
I6
aI0
aI1
aI1
aI0
aI0
aI0
aI0
aI0
aI0
aI0
aI0
aI0
aI0
asg6
S'OKC'
p3868
sg8
g9
sg10
g16
sa(dp3869
g2
S'2015-16'
p3870
sg4
(lp3871
I2
aI0
aI2
aI0
aI0
aI0
aI0
aI0
aI0
aI0
aI0
aI0
aI0
aI0
asg6
S'BOS'
p3872
sg8
g9
sg10
g11
sa(dp3873
g2
S'2015-16'
p3874
sg4
(lp3875
I4
aI1
aI1
aI2
aI0
aI0
aI0
aI0
aI0
aI0
aI0
aI0
aI0
aI0
asg6
S'ORL'
p3876
sg8
g9
sg10
g11
sa(dp3877
g2
S'2015-16'
p3878
sg4
(lp3879
I3
aI0
aI1
aI0
aI0
aI0
aI0
aI0
aI0
aI0
aI0
aI0
aI0
aI0
asg6
S'POR'
p3880
sg8
g9
sg10
g16
sa(dp3881
g2
S'2015-16'
p3882
sg4
(lp3883
I5
aI1
aI5
aI0
aI0
aI0
aI0
aI0
aI0
aI0
aI0
aI0
aI0
aI0
asg6
S'NOP'
p3884
sg8
g9
sg10
g11
sa(dp3885
g2
S'2015-16'
p3886
sg4
(lp3887
I4
aI0
aI4
aI0
aI0
aI0
aI0
aI0
aI0
aI0
aI0
aI0
aI0
aI0
asg6
S'WAS'
p3888
sg8
g9
sg10
g16
sa(dp3889
g2
S'2015-16'
p3890
sg4
(lp3891
I3
aI1
aI2
aI0
aI0
aI0
aI0
aI0
aI0
aI0
aI0
aI0
aI0
aI0
asg6
S'BKN'
p3892
sg8
g9
sg10
g16
sa(dp3893
g2
S'2015-16'
p3894
sg4
(lp3895
I3
aI2
aI4
aI0
aI0
aI0
aI0
aI0
aI0
aI0
aI0
aI0
aI0
aI0
asg6
S'CHA'
p3896
sg8
g9
sg10
g11
sa(dp3897
g2
S'2015-16'
p3898
sg4
(lp3899
I4
aI1
aI5
aI0
aI1
aI0
aI1
aI0
aI0
aI0
aI0
aI0
aI0
aI0
asg6
S'TOR'
p3900
sg8
g9
sg10
g11
sa(dp3901
g2
S'2015-16'
p3902
sg4
(lp3903
I0
aI3
aI1
aI1
aI0
aI0
aI0
aI0
aI0
aI0
aI0
aI0
aI0
aI0
asg6
S'ORL'
p3904
sg8
g9
sg10
g16
sa(dp3905
g2
S'2015-16'
p3906
sg4
(lp3907
I1
aI0
aI1
aI0
aI0
aI0
aI0
aI0
aI0
aI0
aI0
aI0
aI0
aI0
asg6
S'ATL'
p3908
sg8
g9
sg10
g16
sa(dp3909
g2
S'2015-16'
p3910
sg4
(lp3911
I4
aI1
aI4
aI0
aI0
aI0
aI0
aI0
aI0
aI0
aI0
aI0
aI0
aI0
asg6
S'MIL'
p3912
sg8
g9
sg10
g16
sa(dp3913
g2
S'2015-16'
p3914
sg4
(lp3915
I3
aI0
aI1
aI1
aI0
aI0
aI0
aI0
aI0
aI0
aI0
aI0
aI0
aI0
asg6
S'DET'
p3916
sg8
g9
sg10
g11
sa(dp3917
g2
S'2015-16'
p3918
sg4
(lp3919
I4
aI2
aI2
aI4
aI0
aI0
aI0
aI0
aI0
aI0
aI0
aI0
aI0
aI0
asg6
S'MIL'
p3920
sg8
g9
sg10
g11
sa(dp3921
g2
S'2015-16'
p3922
sg4
(lp3923
I4
aI3
aI3
aI0
aI0
aI0
aI0
aI0
aI0
aI0
aI0
aI0
aI0
aI0
asg6
S'NYK'
p3924
sg8
g9
sg10
g11
sa(dp3925
g2
S'2015-16'
p3926
sg4
(lp3927
I3
aI4
aI5
aI0
aI0
aI0
aI0
aI0
aI0
aI0
aI0
aI0
aI0
aI0
asg6
S'UTA'
p3928
sg8
g9
sg10
g16
sa(dp3929
g2
S'2015-16'
p3930
sg4
(lp3931
I4
aI2
aI3
aI3
aI0
aI0
aI0
aI0
aI0
aI0
aI0
aI0
aI2
aI0
asg6
S'IND'
p3932
sg8
g9
sg10
g16
sa(dp3933
g2
S'2015-16'
p3934
sg4
(lp3935
I3
aI1
aI1
aI0
aI0
aI0
aI0
aI1
aI0
aI0
aI0
aI0
aI0
aI0
asg6
S'PHI'
p3936
sg8
g9
sg10
g16
sa(dp3937
g2
S'2015-16'
p3938
sg4
(lp3939
I1
aI3
aI2
aI0
aI1
aI0
aI0
aI0
aI0
aI0
aI0
aI0
aI0
aI0
asg6
S'NYK'
p3940
sg8
g9
sg10
g16
sa(dp3941
g2
S'2015-16'
p3942
sg4
(lp3943
I2
aI0
aI1
aI0
aI0
aI0
aI1
aI0
aI0
aI0
aI0
aI0
aI0
aI0
asg6
S'PHI'
p3944
sg8
g9
sg10
g11
sa(dp3945
g2
S'2015-16'
p3946
sg4
(lp3947
I2
aI1
aI1
aI1
aI0
aI0
aI0
aI0
aI0
aI0
aI0
aI0
aI0
aI0
asg6
S'MIA'
p3948
sg8
g9
sg10
g16
sa(dp3949
g2
S'2015-16'
p3950
sg4
(lp3951
I3
aI1
aI1
aI3
aI0
aI0
aI0
aI0
aI0
aI0
aI0
aI0
aI0
aI0
asg6
S'MEM'
p3952
sg8
g9
sg10
g11
sa(dp3953
g2
S'2015-16'
p3954
sg4
(lp3955
I0
aI2
aI0
aI1
aI0
aI0
aI0
aI0
aI0
aI0
aI0
aI0
aI0
aI0
asg6
S'CHI'
p3956
sg8
g9
sg10
g11
sa(dp3957
g2
S'2016-17'
p3958
sg4
(lp3959
I3
aI2
aI3
aI2
aI0
aI0
aI0
aI1
aI0
aI0
aI0
aI0
aI0
aI0
asg6
S'LAL'
p3960
sg8
g9
sg10
g16
sa(dp3961
g2
S'2016-17'
p3962
sg4
(lp3963
I3
aI2
aI2
aI1
aI0
aI0
aI0
aI0
aI0
aI0
aI0
aI0
aI0
aI0
asg6
S'MEM'
p3964
sg8
g9
sg10
g16
sa(dp3965
g2
S'2016-17'
p3966
sg4
(lp3967
I3
aI2
aI2
aI2
aI0
aI0
aI0
aI0
aI0
aI0
aI0
aI0
aI0
aI0
asg6
S'CHA'
p3968
sg8
g9
sg10
g16
sa(dp3969
g2
S'2016-17'
p3970
sg4
(lp3971
I1
aI1
aI1
aI1
aI0
aI0
aI0
aI0
aI0
aI0
aI0
aI0
aI0
aI0
asg6
S'MIA'
p3972
sg8
g9
sg10
g16
sa(dp3973
g2
S'2016-17'
p3974
sg4
(lp3975
I5
aI2
aI5
aI2
aI0
aI0
aI0
aI0
aI0
aI0
aI0
aI0
aI0
aI0
asg6
S'NYK'
p3976
sg8
g9
sg10
g11
sa(dp3977
g2
S'2016-17'
p3978
sg4
(lp3979
I4
aI1
aI3
aI0
aI0
aI0
aI1
aI0
aI0
aI0
aI0
aI0
aI0
aI0
asg6
S'TOR'
p3980
sg8
g9
sg10
g11
sa(dp3981
g2
S'2016-17'
p3982
sg4
(lp3983
I0
aI0
aI0
aI0
aI0
aI0
aI0
aI0
aI0
aI0
aI0
aI0
aI0
aI0
asg6
S'CHI'
p3984
sg8
g9
sg10
g11
sa(dp3985
g2
S'2016-17'
p3986
sg4
(lp3987
I3
aI2
aI2
aI3
aI1
aI0
aI0
aI0
aI0
aI0
aI0
aI0
aI0
aI0
asg6
S'LAC'
p3988
sg8
g9
sg10
g16
sa(dp3989
g2
S'2016-17'
p3990
sg4
(lp3991
I1
aI3
aI2
aI1
aI0
aI0
aI0
aI0
aI0
aI0
aI0
aI0
aI0
aI0
asg6
S'MIL'
p3992
sg8
g9
sg10
g11
sa(dp3993
g2
S'2016-17'
p3994
sg4
(lp3995
I5
aI0
aI1
aI2
aI0
aI0
aI1
aI0
aI0
aI0
aI0
aI0
aI0
aI0
asg6
S'PHI'
p3996
sg8
g9
sg10
g11
sa(dp3997
g2
S'2016-17'
p3998
sg4
(lp3999
I3
aI0
aI2
aI0
aI0
aI0
aI0
aI0
aI0
aI0
aI0
aI0
aI0
aI0
asg6
S'DAL'
p4000
sg8
g9
sg10
g16
sa(dp4001
g2
S'2016-17'
p4002
sg4
(lp4003
I5
aI1
aI2
aI0
aI0
aI0
aI0
aI0
aI0
aI0
aI0
aI0
aI0
aI0
asg6
S'POR'
p4004
sg8
g9
sg10
g16
sa(dp4005
g2
S'2016-17'
p4006
sg4
(lp4007
I0
aI1
aI1
aI0
aI0
aI0
aI1
aI0
aI0
aI0
aI0
aI0
aI0
aI0
asg6
S'DET'
p4008
sg8
g9
sg10
g16
sa(dp4009
g2
S'2016-17'
p4010
sg4
(lp4011
I5
aI1
aI1
aI3
aI0
aI0
aI0
aI0
aI0
aI0
aI0
aI0
aI0
aI0
asg6
S'TOR'
p4012
sg8
g9
sg10
g16
sa(dp4013
g2
S'2016-17'
p4014
sg4
(lp4015
I0
aI1
aI1
aI0
aI0
aI0
aI0
aI0
aI0
aI0
aI0
aI0
aI0
aI0
asg6
S'CHA'
p4016
sg8
g9
sg10
g16
sa(dp4017
g2
S'2016-17'
p4018
sg4
(lp4019
I3
aI2
aI3
aI1
aI0
aI0
aI0
aI0
aI0
aI0
aI0
aI0
aI0
aI0
asg6
S'WAS'
p4020
sg8
g9
sg10
g11
sa(dp4021
g2
S'2016-17'
p4022
sg4
(lp4023
I3
aI0
aI2
aI0
aI0
aI0
aI0
aI0
aI0
aI0
aI0
aI0
aI0
aI0
asg6
S'ATL'
p4024
sg8
g9
sg10
g16
sa(dp4025
g2
S'2016-17'
p4026
sg4
(lp4027
I4
aI0
aI2
aI0
aI0
aI0
aI0
aI1
aI0
aI0
aI0
aI0
aI0
aI0
asg6
S'PHI'
p4028
sg8
g9
sg10
g11
sa(dp4029
g2
S'2016-17'
p4030
sg4
(lp4031
I3
aI0
aI2
aI0
aI0
aI0
aI0
aI0
aI0
aI0
aI0
aI0
aI0
aI0
asg6
S'BOS'
p4032
sg8
g9
sg10
g16
sa(dp4033
g2
S'2016-17'
p4034
sg4
(lp4035
I1
aI4
aI5
aI0
aI0
aI0
aI0
aI0
aI0
aI0
aI0
aI0
aI0
aI0
asg6
S'HOU'
p4036
sg8
g9
sg10
g16
sa(dp4037
g2
S'2016-17'
p4038
sg4
(lp4039
I4
aI3
aI3
aI1
aI0
aI0
aI0
aI0
aI0
aI0
aI0
aI0
aI0
aI0
asg6
S'ORL'
p4040
sg8
g9
sg10
g16
sa(dp4041
g2
S'2016-17'
p4042
sg4
(lp4043
I2
aI1
aI2
aI1
aI0
aI0
aI1
aI0
aI0
aI0
aI0
aI0
aI0
aI0
asg6
S'TOR'
p4044
sg8
g9
sg10
g11
sa(dp4045
g2
S'2016-17'
p4046
sg4
(lp4047
I0
aI1
aI1
aI0
aI0
aI0
aI0
aI0
aI0
aI0
aI0
aI0
aI0
aI0
asg6
S'NYK'
p4048
sg8
g9
sg10
g16
sa.